
MotorFaderSteuerung.elf:     Dateiformat elf32-avr

Sektionen:
Idx Name          Größe     VMA       LMA       Datei-Off Ausr.
  0 .text         000018ce  00000000  00000000  00000094  2**1
                  CONTENTS, ALLOC, LOAD, READONLY, CODE
  1 .data         00000006  00800060  000018ce  00001962  2**0
                  CONTENTS, ALLOC, LOAD, DATA
  2 .bss          00000067  00800066  00800066  00001968  2**0
                  ALLOC
  3 .stab         000029e8  00000000  00000000  00001968  2**2
                  CONTENTS, READONLY, DEBUGGING
  4 .stabstr      000004a5  00000000  00000000  00004350  2**0
                  CONTENTS, READONLY, DEBUGGING
  5 .comment      00000011  00000000  00000000  000047f5  2**0
                  CONTENTS, READONLY

Disassembly of section .text:

00000000 <__vectors>:
       0:	12 c0       	rjmp	.+36     	; 0x26 <__ctors_end>
       2:	2c c0       	rjmp	.+88     	; 0x5c <__bad_interrupt>
       4:	2b c0       	rjmp	.+86     	; 0x5c <__bad_interrupt>
       6:	2a c0       	rjmp	.+84     	; 0x5c <__bad_interrupt>
       8:	29 c0       	rjmp	.+82     	; 0x5c <__bad_interrupt>
       a:	28 c0       	rjmp	.+80     	; 0x5c <__bad_interrupt>
       c:	d2 c2       	rjmp	.+1444   	; 0x5b2 <__vector_6>
       e:	26 c0       	rjmp	.+76     	; 0x5c <__bad_interrupt>
      10:	25 c0       	rjmp	.+74     	; 0x5c <__bad_interrupt>
      12:	24 c0       	rjmp	.+72     	; 0x5c <__bad_interrupt>
      14:	cd c1       	rjmp	.+922    	; 0x3b0 <__vector_10>
      16:	23 c0       	rjmp	.+70     	; 0x5e <__vector_11>
      18:	21 c0       	rjmp	.+66     	; 0x5c <__bad_interrupt>
      1a:	51 c0       	rjmp	.+162    	; 0xbe <__vector_13>
      1c:	1f c0       	rjmp	.+62     	; 0x5c <__bad_interrupt>
      1e:	1e c0       	rjmp	.+60     	; 0x5c <__bad_interrupt>
      20:	1d c0       	rjmp	.+58     	; 0x5c <__bad_interrupt>
      22:	1c c0       	rjmp	.+56     	; 0x5c <__bad_interrupt>
      24:	1b c0       	rjmp	.+54     	; 0x5c <__bad_interrupt>

00000026 <__ctors_end>:
      26:	11 24       	eor	r1, r1
      28:	1f be       	out	0x3f, r1	; 63
      2a:	cf e5       	ldi	r28, 0x5F	; 95
      2c:	d4 e0       	ldi	r29, 0x04	; 4
      2e:	de bf       	out	0x3e, r29	; 62
      30:	cd bf       	out	0x3d, r28	; 61

00000032 <__do_copy_data>:
      32:	10 e0       	ldi	r17, 0x00	; 0
      34:	a0 e6       	ldi	r26, 0x60	; 96
      36:	b0 e0       	ldi	r27, 0x00	; 0
      38:	ee ec       	ldi	r30, 0xCE	; 206
      3a:	f8 e1       	ldi	r31, 0x18	; 24
      3c:	02 c0       	rjmp	.+4      	; 0x42 <__SREG__+0x3>
      3e:	05 90       	lpm	r0, Z+
      40:	0d 92       	st	X+, r0
      42:	a6 36       	cpi	r26, 0x66	; 102
      44:	b1 07       	cpc	r27, r17
      46:	d9 f7       	brne	.-10     	; 0x3e <__SP_H__>

00000048 <__do_clear_bss>:
      48:	10 e0       	ldi	r17, 0x00	; 0
      4a:	a6 e6       	ldi	r26, 0x66	; 102
      4c:	b0 e0       	ldi	r27, 0x00	; 0
      4e:	01 c0       	rjmp	.+2      	; 0x52 <.do_clear_bss_start>

00000050 <.do_clear_bss_loop>:
      50:	1d 92       	st	X+, r1

00000052 <.do_clear_bss_start>:
      52:	ad 3c       	cpi	r26, 0xCD	; 205
      54:	b1 07       	cpc	r27, r17
      56:	e1 f7       	brne	.-8      	; 0x50 <.do_clear_bss_loop>
      58:	6f d8       	rcall	.-3874   	; 0xfffff138 <__eeprom_end+0xff7ef138>
      5a:	37 cc       	rjmp	.-1938   	; 0xfffff8ca <__eeprom_end+0xff7ef8ca>

0000005c <__bad_interrupt>:
      5c:	d1 cf       	rjmp	.-94     	; 0x0 <__vectors>

0000005e <__vector_11>:
      5e:	1f 92       	push	r1
      60:	0f 92       	push	r0
      62:	0f b6       	in	r0, 0x3f	; 63
      64:	0f 92       	push	r0
      66:	11 24       	eor	r1, r1
      68:	8f 93       	push	r24
      6a:	9f 93       	push	r25
      6c:	ef 93       	push	r30
      6e:	ff 93       	push	r31
      70:	8c b1       	in	r24, 0x0c	; 12
      72:	88 23       	and	r24, r24
      74:	21 f0       	breq	.+8      	; 0x7e <__vector_11+0x20>
      76:	90 ee       	ldi	r25, 0xE0	; 224
      78:	98 0f       	add	r25, r24
      7a:	9e 35       	cpi	r25, 0x5E	; 94
      7c:	b8 f4       	brcc	.+46     	; 0xac <__vector_11+0x4e>
      7e:	90 91 66 00 	lds	r25, 0x0066
      82:	91 11       	cpse	r25, r1
      84:	13 c0       	rjmp	.+38     	; 0xac <__vector_11+0x4e>
      86:	e0 91 67 00 	lds	r30, 0x0067
      8a:	f0 e0       	ldi	r31, 0x00	; 0
      8c:	e5 57       	subi	r30, 0x75	; 117
      8e:	ff 4f       	sbci	r31, 0xFF	; 255
      90:	80 83       	st	Z, r24
      92:	90 91 67 00 	lds	r25, 0x0067
      96:	9f 5f       	subi	r25, 0xFF	; 255
      98:	90 93 67 00 	sts	0x0067, r25
      9c:	81 11       	cpse	r24, r1
      9e:	06 c0       	rjmp	.+12     	; 0xac <__vector_11+0x4e>
      a0:	80 91 67 00 	lds	r24, 0x0067
      a4:	80 93 66 00 	sts	0x0066, r24
      a8:	10 92 67 00 	sts	0x0067, r1
      ac:	ff 91       	pop	r31
      ae:	ef 91       	pop	r30
      b0:	9f 91       	pop	r25
      b2:	8f 91       	pop	r24
      b4:	0f 90       	pop	r0
      b6:	0f be       	out	0x3f, r0	; 63
      b8:	0f 90       	pop	r0
      ba:	1f 90       	pop	r1
      bc:	18 95       	reti

000000be <__vector_13>:
      be:	1f 92       	push	r1
      c0:	0f 92       	push	r0
      c2:	0f b6       	in	r0, 0x3f	; 63
      c4:	0f 92       	push	r0
      c6:	11 24       	eor	r1, r1
      c8:	8f 93       	push	r24
      ca:	9f 93       	push	r25
      cc:	ef 93       	push	r30
      ce:	ff 93       	push	r31
      d0:	90 91 69 00 	lds	r25, 0x0069
      d4:	80 91 68 00 	lds	r24, 0x0068
      d8:	98 17       	cp	r25, r24
      da:	60 f4       	brcc	.+24     	; 0xf4 <__vector_13+0x36>
      dc:	e0 91 69 00 	lds	r30, 0x0069
      e0:	81 e0       	ldi	r24, 0x01	; 1
      e2:	8e 0f       	add	r24, r30
      e4:	80 93 69 00 	sts	0x0069, r24
      e8:	f0 e0       	ldi	r31, 0x00	; 0
      ea:	e9 58       	subi	r30, 0x89	; 137
      ec:	ff 4f       	sbci	r31, 0xFF	; 255
      ee:	80 81       	ld	r24, Z
      f0:	8c b9       	out	0x0c, r24	; 12
      f2:	13 c0       	rjmp	.+38     	; 0x11a <__vector_13+0x5c>
      f4:	90 91 69 00 	lds	r25, 0x0069
      f8:	80 91 68 00 	lds	r24, 0x0068
      fc:	98 13       	cpse	r25, r24
      fe:	07 c0       	rjmp	.+14     	; 0x10e <__vector_13+0x50>
     100:	80 91 69 00 	lds	r24, 0x0069
     104:	8f 5f       	subi	r24, 0xFF	; 255
     106:	80 93 69 00 	sts	0x0069, r24
     10a:	1c b8       	out	0x0c, r1	; 12
     10c:	06 c0       	rjmp	.+12     	; 0x11a <__vector_13+0x5c>
     10e:	10 92 69 00 	sts	0x0069, r1
     112:	10 92 68 00 	sts	0x0068, r1
     116:	10 92 77 00 	sts	0x0077, r1
     11a:	ff 91       	pop	r31
     11c:	ef 91       	pop	r30
     11e:	9f 91       	pop	r25
     120:	8f 91       	pop	r24
     122:	0f 90       	pop	r0
     124:	0f be       	out	0x3f, r0	; 63
     126:	0f 90       	pop	r0
     128:	1f 90       	pop	r1
     12a:	18 95       	reti

0000012c <uart_init>:
     12c:	10 bc       	out	0x20, r1	; 32
     12e:	8f e5       	ldi	r24, 0x5F	; 95
     130:	89 b9       	out	0x09, r24	; 9
     132:	8a b1       	in	r24, 0x0a	; 10
     134:	88 6d       	ori	r24, 0xD8	; 216
     136:	8a b9       	out	0x0a, r24	; 10
     138:	86 e8       	ldi	r24, 0x86	; 134
     13a:	80 bd       	out	0x20, r24	; 32
     13c:	78 94       	sei
     13e:	08 95       	ret

00000140 <sendMessage>:
     140:	e7 e7       	ldi	r30, 0x77	; 119
     142:	f0 e0       	ldi	r31, 0x00	; 0
     144:	01 90       	ld	r0, Z+
     146:	00 20       	and	r0, r0
     148:	e9 f7       	brne	.-6      	; 0x144 <sendMessage+0x4>
     14a:	31 97       	sbiw	r30, 0x01	; 1
     14c:	e7 57       	subi	r30, 0x77	; 119
     14e:	f0 40       	sbci	r31, 0x00	; 0
     150:	e0 93 68 00 	sts	0x0068, r30
     154:	80 91 68 00 	lds	r24, 0x0068
     158:	88 23       	and	r24, r24
     15a:	71 f0       	breq	.+28     	; 0x178 <sendMessage+0x38>
     15c:	80 91 69 00 	lds	r24, 0x0069
     160:	81 11       	cpse	r24, r1
     162:	0a c0       	rjmp	.+20     	; 0x178 <sendMessage+0x38>
     164:	e0 91 69 00 	lds	r30, 0x0069
     168:	f0 e0       	ldi	r31, 0x00	; 0
     16a:	e9 58       	subi	r30, 0x89	; 137
     16c:	ff 4f       	sbci	r31, 0xFF	; 255
     16e:	80 81       	ld	r24, Z
     170:	8c b9       	out	0x0c, r24	; 12
     172:	81 e0       	ldi	r24, 0x01	; 1
     174:	80 93 69 00 	sts	0x0069, r24
     178:	08 95       	ret

0000017a <startMotor>:
     17a:	0f 93       	push	r16
     17c:	1f 93       	push	r17
     17e:	a8 2f       	mov	r26, r24
     180:	b0 e0       	ldi	r27, 0x00	; 0
     182:	00 91 6a 00 	lds	r16, 0x006A
     186:	10 91 6b 00 	lds	r17, 0x006B
     18a:	20 91 6c 00 	lds	r18, 0x006C
     18e:	30 91 6d 00 	lds	r19, 0x006D
     192:	aa 0f       	add	r26, r26
     194:	bb 1f       	adc	r27, r27
     196:	61 30       	cpi	r22, 0x01	; 1
     198:	29 f5       	brne	.+74     	; 0x1e4 <startMotor+0x6a>
     19a:	ad 01       	movw	r20, r26
     19c:	4f 5f       	subi	r20, 0xFF	; 255
     19e:	5f 4f       	sbci	r21, 0xFF	; 255
     1a0:	e1 e0       	ldi	r30, 0x01	; 1
     1a2:	f0 e0       	ldi	r31, 0x00	; 0
     1a4:	cf 01       	movw	r24, r30
     1a6:	02 c0       	rjmp	.+4      	; 0x1ac <startMotor+0x32>
     1a8:	88 0f       	add	r24, r24
     1aa:	99 1f       	adc	r25, r25
     1ac:	4a 95       	dec	r20
     1ae:	e2 f7       	brpl	.-8      	; 0x1a8 <startMotor+0x2e>
     1b0:	ac 01       	movw	r20, r24
     1b2:	40 95       	com	r20
     1b4:	50 95       	com	r21
     1b6:	66 27       	eor	r22, r22
     1b8:	57 fd       	sbrc	r21, 7
     1ba:	60 95       	com	r22
     1bc:	76 2f       	mov	r23, r22
     1be:	cf 01       	movw	r24, r30
     1c0:	02 c0       	rjmp	.+4      	; 0x1c6 <startMotor+0x4c>
     1c2:	88 0f       	add	r24, r24
     1c4:	99 1f       	adc	r25, r25
     1c6:	aa 95       	dec	r26
     1c8:	e2 f7       	brpl	.-8      	; 0x1c2 <startMotor+0x48>
     1ca:	aa 27       	eor	r26, r26
     1cc:	97 fd       	sbrc	r25, 7
     1ce:	a0 95       	com	r26
     1d0:	ba 2f       	mov	r27, r26
     1d2:	80 2b       	or	r24, r16
     1d4:	91 2b       	or	r25, r17
     1d6:	a2 2b       	or	r26, r18
     1d8:	b3 2b       	or	r27, r19
     1da:	48 23       	and	r20, r24
     1dc:	59 23       	and	r21, r25
     1de:	6a 23       	and	r22, r26
     1e0:	7b 23       	and	r23, r27
     1e2:	22 c0       	rjmp	.+68     	; 0x228 <startMotor+0xae>
     1e4:	e1 e0       	ldi	r30, 0x01	; 1
     1e6:	f0 e0       	ldi	r31, 0x00	; 0
     1e8:	af 01       	movw	r20, r30
     1ea:	0a 2e       	mov	r0, r26
     1ec:	02 c0       	rjmp	.+4      	; 0x1f2 <startMotor+0x78>
     1ee:	44 0f       	add	r20, r20
     1f0:	55 1f       	adc	r21, r21
     1f2:	0a 94       	dec	r0
     1f4:	e2 f7       	brpl	.-8      	; 0x1ee <startMotor+0x74>
     1f6:	40 95       	com	r20
     1f8:	50 95       	com	r21
     1fa:	66 27       	eor	r22, r22
     1fc:	57 fd       	sbrc	r21, 7
     1fe:	60 95       	com	r22
     200:	76 2f       	mov	r23, r22
     202:	40 23       	and	r20, r16
     204:	51 23       	and	r21, r17
     206:	62 23       	and	r22, r18
     208:	73 23       	and	r23, r19
     20a:	11 96       	adiw	r26, 0x01	; 1
     20c:	cf 01       	movw	r24, r30
     20e:	02 c0       	rjmp	.+4      	; 0x214 <startMotor+0x9a>
     210:	88 0f       	add	r24, r24
     212:	99 1f       	adc	r25, r25
     214:	aa 95       	dec	r26
     216:	e2 f7       	brpl	.-8      	; 0x210 <startMotor+0x96>
     218:	aa 27       	eor	r26, r26
     21a:	97 fd       	sbrc	r25, 7
     21c:	a0 95       	com	r26
     21e:	ba 2f       	mov	r27, r26
     220:	48 2b       	or	r20, r24
     222:	59 2b       	or	r21, r25
     224:	6a 2b       	or	r22, r26
     226:	7b 2b       	or	r23, r27
     228:	40 93 6a 00 	sts	0x006A, r20
     22c:	50 93 6b 00 	sts	0x006B, r21
     230:	60 93 6c 00 	sts	0x006C, r22
     234:	70 93 6d 00 	sts	0x006D, r23
     238:	60 91 6a 00 	lds	r22, 0x006A
     23c:	70 91 6b 00 	lds	r23, 0x006B
     240:	80 91 6c 00 	lds	r24, 0x006C
     244:	90 91 6d 00 	lds	r25, 0x006D
     248:	1f 91       	pop	r17
     24a:	0f 91       	pop	r16
     24c:	4e c0       	rjmp	.+156    	; 0x2ea <shift>

0000024e <stopMotor>:
     24e:	0f 93       	push	r16
     250:	1f 93       	push	r17
     252:	48 2f       	mov	r20, r24
     254:	50 e0       	ldi	r21, 0x00	; 0
     256:	44 0f       	add	r20, r20
     258:	55 1f       	adc	r21, r21
     25a:	e1 e0       	ldi	r30, 0x01	; 1
     25c:	f0 e0       	ldi	r31, 0x00	; 0
     25e:	bf 01       	movw	r22, r30
     260:	04 2e       	mov	r0, r20
     262:	02 c0       	rjmp	.+4      	; 0x268 <stopMotor+0x1a>
     264:	66 0f       	add	r22, r22
     266:	77 1f       	adc	r23, r23
     268:	0a 94       	dec	r0
     26a:	e2 f7       	brpl	.-8      	; 0x264 <stopMotor+0x16>
     26c:	60 95       	com	r22
     26e:	70 95       	com	r23
     270:	88 27       	eor	r24, r24
     272:	77 fd       	sbrc	r23, 7
     274:	80 95       	com	r24
     276:	98 2f       	mov	r25, r24
     278:	00 91 6a 00 	lds	r16, 0x006A
     27c:	10 91 6b 00 	lds	r17, 0x006B
     280:	20 91 6c 00 	lds	r18, 0x006C
     284:	30 91 6d 00 	lds	r19, 0x006D
     288:	60 23       	and	r22, r16
     28a:	71 23       	and	r23, r17
     28c:	82 23       	and	r24, r18
     28e:	93 23       	and	r25, r19
     290:	4f 5f       	subi	r20, 0xFF	; 255
     292:	5f 4f       	sbci	r21, 0xFF	; 255
     294:	8f 01       	movw	r16, r30
     296:	02 c0       	rjmp	.+4      	; 0x29c <stopMotor+0x4e>
     298:	00 0f       	add	r16, r16
     29a:	11 1f       	adc	r17, r17
     29c:	4a 95       	dec	r20
     29e:	e2 f7       	brpl	.-8      	; 0x298 <stopMotor+0x4a>
     2a0:	00 95       	com	r16
     2a2:	10 95       	com	r17
     2a4:	22 27       	eor	r18, r18
     2a6:	17 fd       	sbrc	r17, 7
     2a8:	20 95       	com	r18
     2aa:	32 2f       	mov	r19, r18
     2ac:	60 23       	and	r22, r16
     2ae:	71 23       	and	r23, r17
     2b0:	82 23       	and	r24, r18
     2b2:	93 23       	and	r25, r19
     2b4:	60 93 6a 00 	sts	0x006A, r22
     2b8:	70 93 6b 00 	sts	0x006B, r23
     2bc:	80 93 6c 00 	sts	0x006C, r24
     2c0:	90 93 6d 00 	sts	0x006D, r25
     2c4:	1f 91       	pop	r17
     2c6:	0f 91       	pop	r16
     2c8:	10 c0       	rjmp	.+32     	; 0x2ea <shift>

000002ca <stopAll>:
     2ca:	10 92 6a 00 	sts	0x006A, r1
     2ce:	10 92 6b 00 	sts	0x006B, r1
     2d2:	10 92 6c 00 	sts	0x006C, r1
     2d6:	10 92 6d 00 	sts	0x006D, r1
     2da:	60 e0       	ldi	r22, 0x00	; 0
     2dc:	70 e0       	ldi	r23, 0x00	; 0
     2de:	cb 01       	movw	r24, r22
     2e0:	04 c0       	rjmp	.+8      	; 0x2ea <shift>

000002e2 <init_shift>:
     2e2:	84 b3       	in	r24, 0x14	; 20
     2e4:	87 60       	ori	r24, 0x07	; 7
     2e6:	84 bb       	out	0x14, r24	; 20
     2e8:	08 95       	ret

000002ea <shift>:
     2ea:	cf 92       	push	r12
     2ec:	df 92       	push	r13
     2ee:	ef 92       	push	r14
     2f0:	ff 92       	push	r15
     2f2:	2f e1       	ldi	r18, 0x1F	; 31
     2f4:	30 e0       	ldi	r19, 0x00	; 0
     2f6:	e1 e0       	ldi	r30, 0x01	; 1
     2f8:	f0 e0       	ldi	r31, 0x00	; 0
     2fa:	af 01       	movw	r20, r30
     2fc:	02 2e       	mov	r0, r18
     2fe:	02 c0       	rjmp	.+4      	; 0x304 <shift+0x1a>
     300:	44 0f       	add	r20, r20
     302:	55 1f       	adc	r21, r21
     304:	0a 94       	dec	r0
     306:	e2 f7       	brpl	.-8      	; 0x300 <shift+0x16>
     308:	6a 01       	movw	r12, r20
     30a:	ee 24       	eor	r14, r14
     30c:	d7 fc       	sbrc	r13, 7
     30e:	e0 94       	com	r14
     310:	fe 2c       	mov	r15, r14
     312:	c6 22       	and	r12, r22
     314:	d7 22       	and	r13, r23
     316:	e8 22       	and	r14, r24
     318:	f9 22       	and	r15, r25
     31a:	cd 28       	or	r12, r13
     31c:	ce 28       	or	r12, r14
     31e:	cf 28       	or	r12, r15
     320:	11 f0       	breq	.+4      	; 0x326 <shift+0x3c>
     322:	aa 9a       	sbi	0x15, 2	; 21
     324:	01 c0       	rjmp	.+2      	; 0x328 <shift+0x3e>
     326:	aa 98       	cbi	0x15, 2	; 21
     328:	a8 9a       	sbi	0x15, 0	; 21
     32a:	a8 98       	cbi	0x15, 0	; 21
     32c:	21 50       	subi	r18, 0x01	; 1
     32e:	31 09       	sbc	r19, r1
     330:	20 f7       	brcc	.-56     	; 0x2fa <shift+0x10>
     332:	a9 9a       	sbi	0x15, 1	; 21
     334:	a8 9a       	sbi	0x15, 0	; 21
     336:	a8 98       	cbi	0x15, 0	; 21
     338:	a9 98       	cbi	0x15, 1	; 21
     33a:	ff 90       	pop	r15
     33c:	ef 90       	pop	r14
     33e:	df 90       	pop	r13
     340:	cf 90       	pop	r12
     342:	08 95       	ret

00000344 <initSPI>:
     344:	8c e2       	ldi	r24, 0x2C	; 44
     346:	87 bb       	out	0x17, r24	; 23
     348:	c2 9a       	sbi	0x18, 2	; 24
     34a:	81 e5       	ldi	r24, 0x51	; 81
     34c:	8d b9       	out	0x0d, r24	; 13
     34e:	10 92 a0 00 	sts	0x00A0, r1
     352:	10 92 9f 00 	sts	0x009F, r1
     356:	10 92 a1 00 	sts	0x00A1, r1
     35a:	10 92 a2 00 	sts	0x00A2, r1
     35e:	10 92 a3 00 	sts	0x00A3, r1
     362:	10 92 a4 00 	sts	0x00A4, r1
     366:	10 92 a5 00 	sts	0x00A5, r1
     36a:	10 92 a6 00 	sts	0x00A6, r1
     36e:	10 92 a8 00 	sts	0x00A8, r1
     372:	10 92 a7 00 	sts	0x00A7, r1
     376:	10 92 a9 00 	sts	0x00A9, r1
     37a:	10 92 aa 00 	sts	0x00AA, r1
     37e:	10 92 ab 00 	sts	0x00AB, r1
     382:	10 92 ac 00 	sts	0x00AC, r1
     386:	10 92 ad 00 	sts	0x00AD, r1
     38a:	10 92 ae 00 	sts	0x00AE, r1
     38e:	78 94       	sei
     390:	08 95       	ret

00000392 <startMeassure>:
     392:	6f 9a       	sbi	0x0d, 7	; 13
     394:	c2 98       	cbi	0x18, 2	; 24
     396:	86 e0       	ldi	r24, 0x06	; 6
     398:	8f b9       	out	0x0f, r24	; 15
     39a:	8a e0       	ldi	r24, 0x0A	; 10
     39c:	80 93 6e 00 	sts	0x006E, r24
     3a0:	80 91 9f 00 	lds	r24, 0x009F
     3a4:	80 93 6f 00 	sts	0x006F, r24
     3a8:	81 e0       	ldi	r24, 0x01	; 1
     3aa:	80 93 70 00 	sts	0x0070, r24
     3ae:	08 95       	ret

000003b0 <__vector_10>:
     3b0:	1f 92       	push	r1
     3b2:	0f 92       	push	r0
     3b4:	0f b6       	in	r0, 0x3f	; 63
     3b6:	0f 92       	push	r0
     3b8:	11 24       	eor	r1, r1
     3ba:	af 92       	push	r10
     3bc:	bf 92       	push	r11
     3be:	cf 92       	push	r12
     3c0:	df 92       	push	r13
     3c2:	ef 92       	push	r14
     3c4:	ff 92       	push	r15
     3c6:	1f 93       	push	r17
     3c8:	2f 93       	push	r18
     3ca:	3f 93       	push	r19
     3cc:	4f 93       	push	r20
     3ce:	5f 93       	push	r21
     3d0:	6f 93       	push	r22
     3d2:	7f 93       	push	r23
     3d4:	8f 93       	push	r24
     3d6:	9f 93       	push	r25
     3d8:	af 93       	push	r26
     3da:	bf 93       	push	r27
     3dc:	cf 93       	push	r28
     3de:	df 93       	push	r29
     3e0:	ef 93       	push	r30
     3e2:	ff 93       	push	r31
     3e4:	80 91 70 00 	lds	r24, 0x0070
     3e8:	23 e0       	ldi	r18, 0x03	; 3
     3ea:	62 2f       	mov	r22, r18
     3ec:	c3 d7       	rcall	.+3974   	; 0x1374 <__udivmodqi4>
     3ee:	18 2f       	mov	r17, r24
     3f0:	80 91 70 00 	lds	r24, 0x0070
     3f4:	bf d7       	rcall	.+3966   	; 0x1374 <__udivmodqi4>
     3f6:	91 11       	cpse	r25, r1
     3f8:	58 c0       	rjmp	.+176    	; 0x4aa <__stack+0x4b>
     3fa:	c2 9a       	sbi	0x18, 2	; 24
     3fc:	80 91 72 00 	lds	r24, 0x0072
     400:	90 91 73 00 	lds	r25, 0x0073
     404:	2f b1       	in	r18, 0x0f	; 15
     406:	82 2b       	or	r24, r18
     408:	90 93 73 00 	sts	0x0073, r25
     40c:	80 93 72 00 	sts	0x0072, r24
     410:	11 23       	and	r17, r17
     412:	19 f0       	breq	.+6      	; 0x41a <__vector_10+0x6a>
     414:	cf ef       	ldi	r28, 0xFF	; 255
     416:	c1 0f       	add	r28, r17
     418:	01 c0       	rjmp	.+2      	; 0x41c <__vector_10+0x6c>
     41a:	c1 e0       	ldi	r28, 0x01	; 1
     41c:	d0 e0       	ldi	r29, 0x00	; 0
     41e:	60 91 72 00 	lds	r22, 0x0072
     422:	70 91 73 00 	lds	r23, 0x0073
     426:	34 e0       	ldi	r19, 0x04	; 4
     428:	76 95       	lsr	r23
     42a:	67 95       	ror	r22
     42c:	3a 95       	dec	r19
     42e:	e1 f7       	brne	.-8      	; 0x428 <__vector_10+0x78>
     430:	8f e0       	ldi	r24, 0x0F	; 15
     432:	18 9f       	mul	r17, r24
     434:	50 01       	movw	r10, r0
     436:	11 24       	eor	r1, r1
     438:	f5 01       	movw	r30, r10
     43a:	e1 55       	subi	r30, 0x51	; 81
     43c:	ff 4f       	sbci	r31, 0xFF	; 255
     43e:	5f 01       	movw	r10, r30
     440:	85 85       	ldd	r24, Z+13	; 0x0d
     442:	68 1b       	sub	r22, r24
     444:	71 09       	sbc	r23, r1
     446:	80 e0       	ldi	r24, 0x00	; 0
     448:	90 e0       	ldi	r25, 0x00	; 0
     44a:	9d d8       	rcall	.-3782   	; 0xfffff586 <__eeprom_end+0xff7ef586>
     44c:	6b 01       	movw	r12, r22
     44e:	7c 01       	movw	r14, r24
     450:	f5 01       	movw	r30, r10
     452:	64 85       	ldd	r22, Z+12	; 0x0c
     454:	70 e0       	ldi	r23, 0x00	; 0
     456:	80 e0       	ldi	r24, 0x00	; 0
     458:	90 e0       	ldi	r25, 0x00	; 0
     45a:	97 d8       	rcall	.-3794   	; 0xfffff58a <__eeprom_end+0xff7ef58a>
     45c:	20 e0       	ldi	r18, 0x00	; 0
     45e:	30 e0       	ldi	r19, 0x00	; 0
     460:	4f e7       	ldi	r20, 0x7F	; 127
     462:	53 e4       	ldi	r21, 0x43	; 67
     464:	fc d7       	rcall	.+4088   	; 0x145e <__divsf3>
     466:	9b 01       	movw	r18, r22
     468:	ac 01       	movw	r20, r24
     46a:	c7 01       	movw	r24, r14
     46c:	b6 01       	movw	r22, r12
     46e:	3d d9       	rcall	.-3462   	; 0xfffff6ea <__eeprom_end+0xff7ef6ea>
     470:	5e d8       	rcall	.-3908   	; 0xfffff52e <__eeprom_end+0xff7ef52e>
     472:	43 e0       	ldi	r20, 0x03	; 3
     474:	cc 0f       	add	r28, r28
     476:	dd 1f       	adc	r29, r29
     478:	4a 95       	dec	r20
     47a:	e1 f7       	brne	.-8      	; 0x474 <__stack+0x15>
     47c:	c1 56       	subi	r28, 0x61	; 97
     47e:	df 4f       	sbci	r29, 0xFF	; 255
     480:	6c 83       	std	Y+4, r22	; 0x04
     482:	80 91 72 00 	lds	r24, 0x0072
     486:	90 91 73 00 	lds	r25, 0x0073
     48a:	54 e0       	ldi	r21, 0x04	; 4
     48c:	96 95       	lsr	r25
     48e:	87 95       	ror	r24
     490:	5a 95       	dec	r21
     492:	e1 f7       	brne	.-8      	; 0x48c <__stack+0x2d>
     494:	8f 83       	std	Y+7, r24	; 0x07
     496:	81 e0       	ldi	r24, 0x01	; 1
     498:	8b 83       	std	Y+3, r24	; 0x03
     49a:	c2 98       	cbi	0x18, 2	; 24
     49c:	12 ff       	sbrs	r17, 2
     49e:	02 c0       	rjmp	.+4      	; 0x4a4 <__stack+0x45>
     4a0:	87 e0       	ldi	r24, 0x07	; 7
     4a2:	01 c0       	rjmp	.+2      	; 0x4a6 <__stack+0x47>
     4a4:	86 e0       	ldi	r24, 0x06	; 6
     4a6:	8f b9       	out	0x0f, r24	; 15
     4a8:	1f c0       	rjmp	.+62     	; 0x4e8 <__stack+0x89>
     4aa:	80 91 70 00 	lds	r24, 0x0070
     4ae:	62 2f       	mov	r22, r18
     4b0:	61 d7       	rcall	.+3778   	; 0x1374 <__udivmodqi4>
     4b2:	91 30       	cpi	r25, 0x01	; 1
     4b4:	31 f4       	brne	.+12     	; 0x4c2 <__stack+0x63>
     4b6:	12 95       	swap	r17
     4b8:	11 0f       	add	r17, r17
     4ba:	11 0f       	add	r17, r17
     4bc:	10 7c       	andi	r17, 0xC0	; 192
     4be:	1f b9       	out	0x0f, r17	; 15
     4c0:	13 c0       	rjmp	.+38     	; 0x4e8 <__stack+0x89>
     4c2:	8f b1       	in	r24, 0x0f	; 15
     4c4:	90 e0       	ldi	r25, 0x00	; 0
     4c6:	98 2f       	mov	r25, r24
     4c8:	88 27       	eor	r24, r24
     4ca:	90 93 73 00 	sts	0x0073, r25
     4ce:	80 93 72 00 	sts	0x0072, r24
     4d2:	80 91 72 00 	lds	r24, 0x0072
     4d6:	90 91 73 00 	lds	r25, 0x0073
     4da:	88 27       	eor	r24, r24
     4dc:	9f 70       	andi	r25, 0x0F	; 15
     4de:	90 93 73 00 	sts	0x0073, r25
     4e2:	80 93 72 00 	sts	0x0072, r24
     4e6:	1f b8       	out	0x0f, r1	; 15
     4e8:	80 91 70 00 	lds	r24, 0x0070
     4ec:	8f 5f       	subi	r24, 0xFF	; 255
     4ee:	80 93 70 00 	sts	0x0070, r24
     4f2:	80 91 70 00 	lds	r24, 0x0070
     4f6:	86 30       	cpi	r24, 0x06	; 6
     4f8:	11 f4       	brne	.+4      	; 0x4fe <__stack+0x9f>
     4fa:	10 92 70 00 	sts	0x0070, r1
     4fe:	ff 91       	pop	r31
     500:	ef 91       	pop	r30
     502:	df 91       	pop	r29
     504:	cf 91       	pop	r28
     506:	bf 91       	pop	r27
     508:	af 91       	pop	r26
     50a:	9f 91       	pop	r25
     50c:	8f 91       	pop	r24
     50e:	7f 91       	pop	r23
     510:	6f 91       	pop	r22
     512:	5f 91       	pop	r21
     514:	4f 91       	pop	r20
     516:	3f 91       	pop	r19
     518:	2f 91       	pop	r18
     51a:	1f 91       	pop	r17
     51c:	ff 90       	pop	r15
     51e:	ef 90       	pop	r14
     520:	df 90       	pop	r13
     522:	cf 90       	pop	r12
     524:	bf 90       	pop	r11
     526:	af 90       	pop	r10
     528:	0f 90       	pop	r0
     52a:	0f be       	out	0x3f, r0	; 63
     52c:	0f 90       	pop	r0
     52e:	1f 90       	pop	r1
     530:	18 95       	reti

00000532 <newMessage>:
     532:	80 91 71 00 	lds	r24, 0x0071
     536:	08 95       	ret

00000538 <getMeassure>:
     538:	10 92 71 00 	sts	0x0071, r1
     53c:	80 91 72 00 	lds	r24, 0x0072
     540:	90 91 73 00 	lds	r25, 0x0073
     544:	08 95       	ret

00000546 <readMeassure>:
     546:	c2 98       	cbi	0x18, 2	; 24
     548:	6f 98       	cbi	0x0d, 7	; 13
     54a:	82 fd       	sbrc	r24, 2
     54c:	02 c0       	rjmp	.+4      	; 0x552 <readMeassure+0xc>
     54e:	96 e0       	ldi	r25, 0x06	; 6
     550:	01 c0       	rjmp	.+2      	; 0x554 <readMeassure+0xe>
     552:	97 e0       	ldi	r25, 0x07	; 7
     554:	9f b9       	out	0x0f, r25	; 15
     556:	77 9b       	sbis	0x0e, 7	; 14
     558:	fe cf       	rjmp	.-4      	; 0x556 <readMeassure+0x10>
     55a:	82 95       	swap	r24
     55c:	88 0f       	add	r24, r24
     55e:	88 0f       	add	r24, r24
     560:	80 7c       	andi	r24, 0xC0	; 192
     562:	8f b9       	out	0x0f, r24	; 15
     564:	77 9b       	sbis	0x0e, 7	; 14
     566:	fe cf       	rjmp	.-4      	; 0x564 <readMeassure+0x1e>
     568:	8f b1       	in	r24, 0x0f	; 15
     56a:	90 e0       	ldi	r25, 0x00	; 0
     56c:	98 2f       	mov	r25, r24
     56e:	88 27       	eor	r24, r24
     570:	90 93 73 00 	sts	0x0073, r25
     574:	80 93 72 00 	sts	0x0072, r24
     578:	80 91 72 00 	lds	r24, 0x0072
     57c:	90 91 73 00 	lds	r25, 0x0073
     580:	88 27       	eor	r24, r24
     582:	9f 70       	andi	r25, 0x0F	; 15
     584:	90 93 73 00 	sts	0x0073, r25
     588:	80 93 72 00 	sts	0x0072, r24
     58c:	1f b8       	out	0x0f, r1	; 15
     58e:	77 9b       	sbis	0x0e, 7	; 14
     590:	fe cf       	rjmp	.-4      	; 0x58e <readMeassure+0x48>
     592:	80 91 72 00 	lds	r24, 0x0072
     596:	90 91 73 00 	lds	r25, 0x0073
     59a:	2f b1       	in	r18, 0x0f	; 15
     59c:	82 2b       	or	r24, r18
     59e:	90 93 73 00 	sts	0x0073, r25
     5a2:	80 93 72 00 	sts	0x0072, r24
     5a6:	c2 9a       	sbi	0x18, 2	; 24
     5a8:	80 91 72 00 	lds	r24, 0x0072
     5ac:	90 91 73 00 	lds	r25, 0x0073
     5b0:	08 95       	ret

000005b2 <__vector_6>:
     5b2:	1f 92       	push	r1
     5b4:	0f 92       	push	r0
     5b6:	0f b6       	in	r0, 0x3f	; 63
     5b8:	0f 92       	push	r0
     5ba:	11 24       	eor	r1, r1
     5bc:	8f 93       	push	r24
     5be:	8e b5       	in	r24, 0x2e	; 46
     5c0:	8c 7f       	andi	r24, 0xFC	; 252
     5c2:	8e bd       	out	0x2e, r24	; 46
     5c4:	81 e0       	ldi	r24, 0x01	; 1
     5c6:	80 93 75 00 	sts	0x0075, r24
     5ca:	8f 91       	pop	r24
     5cc:	0f 90       	pop	r0
     5ce:	0f be       	out	0x3f, r0	; 63
     5d0:	0f 90       	pop	r0
     5d2:	1f 90       	pop	r1
     5d4:	18 95       	reti

000005d6 <setTimer>:
     5d6:	2f 92       	push	r2
     5d8:	3f 92       	push	r3
     5da:	4f 92       	push	r4
     5dc:	5f 92       	push	r5
     5de:	6f 92       	push	r6
     5e0:	7f 92       	push	r7
     5e2:	8f 92       	push	r8
     5e4:	9f 92       	push	r9
     5e6:	af 92       	push	r10
     5e8:	bf 92       	push	r11
     5ea:	cf 92       	push	r12
     5ec:	df 92       	push	r13
     5ee:	ef 92       	push	r14
     5f0:	ff 92       	push	r15
     5f2:	0f 93       	push	r16
     5f4:	1f 93       	push	r17
     5f6:	cf 93       	push	r28
     5f8:	df 93       	push	r29
     5fa:	00 d0       	rcall	.+0      	; 0x5fc <setTimer+0x26>
     5fc:	00 d0       	rcall	.+0      	; 0x5fe <setTimer+0x28>
     5fe:	00 d0       	rcall	.+0      	; 0x600 <setTimer+0x2a>
     600:	cd b7       	in	r28, 0x3d	; 61
     602:	de b7       	in	r29, 0x3e	; 62
     604:	28 2e       	mov	r2, r24
     606:	8e b5       	in	r24, 0x2e	; 46
     608:	8c 7f       	andi	r24, 0xFC	; 252
     60a:	8e bd       	out	0x2e, r24	; 46
     60c:	f8 94       	cli
     60e:	80 91 75 00 	lds	r24, 0x0075
     612:	88 23       	and	r24, r24
     614:	19 f0       	breq	.+6      	; 0x61c <setTimer+0x46>
     616:	8a b5       	in	r24, 0x2a	; 42
     618:	9b b5       	in	r25, 0x2b	; 43
     61a:	02 c0       	rjmp	.+4      	; 0x620 <setTimer+0x4a>
     61c:	8c b5       	in	r24, 0x2c	; 44
     61e:	9d b5       	in	r25, 0x2d	; 45
     620:	78 94       	sei
     622:	5f ea       	ldi	r21, 0xAF	; 175
     624:	c5 2e       	mov	r12, r21
     626:	50 e0       	ldi	r21, 0x00	; 0
     628:	d5 2e       	mov	r13, r21
     62a:	0a eb       	ldi	r16, 0xBA	; 186
     62c:	10 e0       	ldi	r17, 0x00	; 0
     62e:	20 eb       	ldi	r18, 0xB0	; 176
     630:	30 e0       	ldi	r19, 0x00	; 0
     632:	3e 83       	std	Y+6, r19	; 0x06
     634:	2d 83       	std	Y+5, r18	; 0x05
     636:	69 eb       	ldi	r22, 0xB9	; 185
     638:	e6 2e       	mov	r14, r22
     63a:	60 e0       	ldi	r22, 0x00	; 0
     63c:	f6 2e       	mov	r15, r22
     63e:	81 2c       	mov	r8, r1
     640:	91 2c       	mov	r9, r1
     642:	2c 01       	movw	r4, r24
     644:	61 2c       	mov	r6, r1
     646:	71 2c       	mov	r7, r1
     648:	49 82       	std	Y+1, r4	; 0x01
     64a:	5a 82       	std	Y+2, r5	; 0x02
     64c:	6b 82       	std	Y+3, r6	; 0x03
     64e:	7c 82       	std	Y+4, r7	; 0x04
     650:	74 e0       	ldi	r23, 0x04	; 4
     652:	37 2e       	mov	r3, r23
     654:	88 2d       	mov	r24, r8
     656:	ad 81       	ldd	r26, Y+5	; 0x05
     658:	be 81       	ldd	r27, Y+6	; 0x06
     65a:	15 96       	adiw	r26, 0x05	; 5
     65c:	4d 91       	ld	r20, X+
     65e:	5d 91       	ld	r21, X+
     660:	6d 91       	ld	r22, X+
     662:	7c 91       	ld	r23, X
     664:	18 97       	sbiw	r26, 0x08	; 8
     666:	41 15       	cp	r20, r1
     668:	51 05       	cpc	r21, r1
     66a:	61 05       	cpc	r22, r1
     66c:	71 05       	cpc	r23, r1
     66e:	09 f4       	brne	.+2      	; 0x672 <setTimer+0x9c>
     670:	70 c1       	rjmp	.+736    	; 0x952 <setTimer+0x37c>
     672:	f7 01       	movw	r30, r14
     674:	90 81       	ld	r25, Z
     676:	29 2f       	mov	r18, r25
     678:	2d 7f       	andi	r18, 0xFD	; 253
     67a:	25 30       	cpi	r18, 0x05	; 5
     67c:	19 f0       	breq	.+6      	; 0x684 <setTimer+0xae>
     67e:	92 30       	cpi	r25, 0x02	; 2
     680:	09 f0       	breq	.+2      	; 0x684 <setTimer+0xae>
     682:	67 c1       	rjmp	.+718    	; 0x952 <setTimer+0x37c>
     684:	82 15       	cp	r24, r2
     686:	09 f4       	brne	.+2      	; 0x68a <setTimer+0xb4>
     688:	64 c1       	rjmp	.+712    	; 0x952 <setTimer+0x37c>
     68a:	49 80       	ldd	r4, Y+1	; 0x01
     68c:	5a 80       	ldd	r5, Y+2	; 0x02
     68e:	6b 80       	ldd	r6, Y+3	; 0x03
     690:	7c 80       	ldd	r7, Y+4	; 0x04
     692:	44 19       	sub	r20, r4
     694:	55 09       	sbc	r21, r5
     696:	66 09       	sbc	r22, r6
     698:	77 09       	sbc	r23, r7
     69a:	ad 81       	ldd	r26, Y+5	; 0x05
     69c:	be 81       	ldd	r27, Y+6	; 0x06
     69e:	15 96       	adiw	r26, 0x05	; 5
     6a0:	4d 93       	st	X+, r20
     6a2:	5d 93       	st	X+, r21
     6a4:	6d 93       	st	X+, r22
     6a6:	7c 93       	st	X, r23
     6a8:	18 97       	sbiw	r26, 0x08	; 8
     6aa:	45 2b       	or	r20, r21
     6ac:	46 2b       	or	r20, r22
     6ae:	47 2b       	or	r20, r23
     6b0:	09 f0       	breq	.+2      	; 0x6b4 <setTimer+0xde>
     6b2:	4f c1       	rjmp	.+670    	; 0x952 <setTimer+0x37c>
     6b4:	10 92 77 00 	sts	0x0077, r1
     6b8:	f7 01       	movw	r30, r14
     6ba:	90 81       	ld	r25, Z
     6bc:	95 30       	cpi	r25, 0x05	; 5
     6be:	d9 f1       	breq	.+118    	; 0x736 <setTimer+0x160>
     6c0:	97 30       	cpi	r25, 0x07	; 7
     6c2:	21 f0       	breq	.+8      	; 0x6cc <setTimer+0xf6>
     6c4:	92 30       	cpi	r25, 0x02	; 2
     6c6:	09 f0       	breq	.+2      	; 0x6ca <setTimer+0xf4>
     6c8:	44 c1       	rjmp	.+648    	; 0x952 <setTimer+0x37c>
     6ca:	e7 c0       	rjmp	.+462    	; 0x89a <setTimer+0x2c4>
     6cc:	f4 01       	movw	r30, r8
     6ce:	43 e0       	ldi	r20, 0x03	; 3
     6d0:	ee 0f       	add	r30, r30
     6d2:	ff 1f       	adc	r31, r31
     6d4:	4a 95       	dec	r20
     6d6:	e1 f7       	brne	.-8      	; 0x6d0 <setTimer+0xfa>
     6d8:	e1 56       	subi	r30, 0x61	; 97
     6da:	ff 4f       	sbci	r31, 0xFF	; 255
     6dc:	84 81       	ldd	r24, Z+4	; 0x04
     6de:	ad 81       	ldd	r26, Y+5	; 0x05
     6e0:	be 81       	ldd	r27, Y+6	; 0x06
     6e2:	8c 93       	st	X, r24
     6e4:	44 24       	eor	r4, r4
     6e6:	43 94       	inc	r4
     6e8:	d7 01       	movw	r26, r14
     6ea:	4c 92       	st	X, r4
     6ec:	90 81       	ld	r25, Z
     6ee:	d6 01       	movw	r26, r12
     6f0:	8c 91       	ld	r24, X
     6f2:	98 17       	cp	r25, r24
     6f4:	88 f4       	brcc	.+34     	; 0x718 <setTimer+0x142>
     6f6:	f8 01       	movw	r30, r16
     6f8:	80 81       	ld	r24, Z
     6fa:	81 60       	ori	r24, 0x01	; 1
     6fc:	80 83       	st	Z, r24
     6fe:	20 e0       	ldi	r18, 0x00	; 0
     700:	30 e0       	ldi	r19, 0x00	; 0
     702:	40 e2       	ldi	r20, 0x20	; 32
     704:	51 e4       	ldi	r21, 0x41	; 65
     706:	ad 81       	ldd	r26, Y+5	; 0x05
     708:	be 81       	ldd	r27, Y+6	; 0x06
     70a:	11 96       	adiw	r26, 0x01	; 1
     70c:	6d 91       	ld	r22, X+
     70e:	7d 91       	ld	r23, X+
     710:	8d 91       	ld	r24, X+
     712:	9c 91       	ld	r25, X
     714:	14 97       	sbiw	r26, 0x04	; 4
     716:	f3 c0       	rjmp	.+486    	; 0x8fe <setTimer+0x328>
     718:	d8 01       	movw	r26, r16
     71a:	8c 91       	ld	r24, X
     71c:	8e 7f       	andi	r24, 0xFE	; 254
     71e:	8c 93       	st	X, r24
     720:	20 e0       	ldi	r18, 0x00	; 0
     722:	30 e0       	ldi	r19, 0x00	; 0
     724:	40 e2       	ldi	r20, 0x20	; 32
     726:	51 e4       	ldi	r21, 0x41	; 65
     728:	ed 81       	ldd	r30, Y+5	; 0x05
     72a:	fe 81       	ldd	r31, Y+6	; 0x06
     72c:	61 81       	ldd	r22, Z+1	; 0x01
     72e:	72 81       	ldd	r23, Z+2	; 0x02
     730:	83 81       	ldd	r24, Z+3	; 0x03
     732:	94 81       	ldd	r25, Z+4	; 0x04
     734:	04 c1       	rjmp	.+520    	; 0x93e <setTimer+0x368>
     736:	8b dd       	rcall	.-1258   	; 0x24e <stopMotor>
     738:	80 91 76 00 	lds	r24, 0x0076
     73c:	81 50       	subi	r24, 0x01	; 1
     73e:	80 93 76 00 	sts	0x0076, r24
     742:	f8 01       	movw	r30, r16
     744:	80 81       	ld	r24, Z
     746:	81 ff       	sbrs	r24, 1
     748:	a4 c0       	rjmp	.+328    	; 0x892 <setTimer+0x2bc>
     74a:	54 01       	movw	r10, r8
     74c:	33 e0       	ldi	r19, 0x03	; 3
     74e:	aa 0c       	add	r10, r10
     750:	bb 1c       	adc	r11, r11
     752:	3a 95       	dec	r19
     754:	e1 f7       	brne	.-8      	; 0x74e <setTimer+0x178>
     756:	f5 01       	movw	r30, r10
     758:	e1 56       	subi	r30, 0x61	; 97
     75a:	ff 4f       	sbci	r31, 0xFF	; 255
     75c:	94 81       	ldd	r25, Z+4	; 0x04
     75e:	99 23       	and	r25, r25
     760:	19 f0       	breq	.+6      	; 0x768 <setTimer+0x192>
     762:	94 81       	ldd	r25, Z+4	; 0x04
     764:	9f 3f       	cpi	r25, 0xFF	; 255
     766:	a1 f5       	brne	.+104    	; 0x7d0 <setTimer+0x1fa>
     768:	f5 01       	movw	r30, r10
     76a:	e1 56       	subi	r30, 0x61	; 97
     76c:	ff 4f       	sbci	r31, 0xFF	; 255
     76e:	94 81       	ldd	r25, Z+4	; 0x04
     770:	99 23       	and	r25, r25
     772:	21 f0       	breq	.+8      	; 0x77c <setTimer+0x1a6>
     774:	8e 7f       	andi	r24, 0xFE	; 254
     776:	d8 01       	movw	r26, r16
     778:	8c 93       	st	X, r24
     77a:	03 c0       	rjmp	.+6      	; 0x782 <setTimer+0x1ac>
     77c:	81 60       	ori	r24, 0x01	; 1
     77e:	f8 01       	movw	r30, r16
     780:	80 83       	st	Z, r24
     782:	f5 01       	movw	r30, r10
     784:	e1 56       	subi	r30, 0x61	; 97
     786:	ff 4f       	sbci	r31, 0xFF	; 255
     788:	84 81       	ldd	r24, Z+4	; 0x04
     78a:	ad 81       	ldd	r26, Y+5	; 0x05
     78c:	be 81       	ldd	r27, Y+6	; 0x06
     78e:	8c 93       	st	X, r24
     790:	f8 01       	movw	r30, r16
     792:	80 81       	ld	r24, Z
     794:	82 60       	ori	r24, 0x02	; 2
     796:	80 83       	st	Z, r24
     798:	9a ef       	ldi	r25, 0xFA	; 250
     79a:	49 2e       	mov	r4, r25
     79c:	55 24       	eor	r5, r5
     79e:	5a 94       	dec	r5
     7a0:	61 2c       	mov	r6, r1
     7a2:	71 2c       	mov	r7, r1
     7a4:	15 96       	adiw	r26, 0x05	; 5
     7a6:	4d 92       	st	X+, r4
     7a8:	5d 92       	st	X+, r5
     7aa:	6d 92       	st	X+, r6
     7ac:	7c 92       	st	X, r7
     7ae:	18 97       	sbiw	r26, 0x08	; 8
     7b0:	41 2c       	mov	r4, r1
     7b2:	20 e4       	ldi	r18, 0x40	; 64
     7b4:	52 2e       	mov	r5, r18
     7b6:	2c e1       	ldi	r18, 0x1C	; 28
     7b8:	62 2e       	mov	r6, r18
     7ba:	26 e4       	ldi	r18, 0x46	; 70
     7bc:	72 2e       	mov	r7, r18
     7be:	11 96       	adiw	r26, 0x01	; 1
     7c0:	4d 92       	st	X+, r4
     7c2:	5d 92       	st	X+, r5
     7c4:	6d 92       	st	X+, r6
     7c6:	7c 92       	st	X, r7
     7c8:	14 97       	sbiw	r26, 0x04	; 4
     7ca:	f7 01       	movw	r30, r14
     7cc:	30 82       	st	Z, r3
     7ce:	c1 c0       	rjmp	.+386    	; 0x952 <setTimer+0x37c>
     7d0:	84 81       	ldd	r24, Z+4	; 0x04
     7d2:	90 e0       	ldi	r25, 0x00	; 0
     7d4:	ad 81       	ldd	r26, Y+5	; 0x05
     7d6:	be 81       	ldd	r27, Y+6	; 0x06
     7d8:	2c 91       	ld	r18, X
     7da:	82 1b       	sub	r24, r18
     7dc:	91 09       	sbc	r25, r1
     7de:	bc 01       	movw	r22, r24
     7e0:	88 27       	eor	r24, r24
     7e2:	77 fd       	sbrc	r23, 7
     7e4:	80 95       	com	r24
     7e6:	98 2f       	mov	r25, r24
     7e8:	d0 d6       	rcall	.+3488   	; 0x158a <__floatsisf>
     7ea:	9b 01       	movw	r18, r22
     7ec:	ac 01       	movw	r20, r24
     7ee:	60 e0       	ldi	r22, 0x00	; 0
     7f0:	7a ef       	ldi	r23, 0xFA	; 250
     7f2:	8f e7       	ldi	r24, 0x7F	; 127
     7f4:	97 e4       	ldi	r25, 0x47	; 71
     7f6:	33 d6       	rcall	.+3174   	; 0x145e <__divsf3>
     7f8:	2b 01       	movw	r4, r22
     7fa:	3c 01       	movw	r6, r24
     7fc:	20 e0       	ldi	r18, 0x00	; 0
     7fe:	30 e0       	ldi	r19, 0x00	; 0
     800:	a9 01       	movw	r20, r18
     802:	29 d6       	rcall	.+3154   	; 0x1456 <__cmpsf2>
     804:	87 fd       	sbrc	r24, 7
     806:	07 c0       	rjmp	.+14     	; 0x816 <setTimer+0x240>
     808:	ed 81       	ldd	r30, Y+5	; 0x05
     80a:	fe 81       	ldd	r31, Y+6	; 0x06
     80c:	41 82       	std	Z+1, r4	; 0x01
     80e:	52 82       	std	Z+2, r5	; 0x02
     810:	63 82       	std	Z+3, r6	; 0x03
     812:	74 82       	std	Z+4, r7	; 0x04
     814:	0c c0       	rjmp	.+24     	; 0x82e <setTimer+0x258>
     816:	77 fa       	bst	r7, 7
     818:	70 94       	com	r7
     81a:	77 f8       	bld	r7, 7
     81c:	70 94       	com	r7
     81e:	ad 81       	ldd	r26, Y+5	; 0x05
     820:	be 81       	ldd	r27, Y+6	; 0x06
     822:	11 96       	adiw	r26, 0x01	; 1
     824:	4d 92       	st	X+, r4
     826:	5d 92       	st	X+, r5
     828:	6d 92       	st	X+, r6
     82a:	7c 92       	st	X, r7
     82c:	14 97       	sbiw	r26, 0x04	; 4
     82e:	f5 01       	movw	r30, r10
     830:	e1 56       	subi	r30, 0x61	; 97
     832:	ff 4f       	sbci	r31, 0xFF	; 255
     834:	84 81       	ldd	r24, Z+4	; 0x04
     836:	ad 81       	ldd	r26, Y+5	; 0x05
     838:	be 81       	ldd	r27, Y+6	; 0x06
     83a:	8c 93       	st	X, r24
     83c:	44 24       	eor	r4, r4
     83e:	4a 94       	dec	r4
     840:	d6 01       	movw	r26, r12
     842:	4c 92       	st	X, r4
     844:	d8 01       	movw	r26, r16
     846:	8c 91       	ld	r24, X
     848:	81 60       	ori	r24, 0x01	; 1
     84a:	8c 93       	st	X, r24
     84c:	84 81       	ldd	r24, Z+4	; 0x04
     84e:	ef ef       	ldi	r30, 0xFF	; 255
     850:	f0 e0       	ldi	r31, 0x00	; 0
     852:	e8 1b       	sub	r30, r24
     854:	f1 09       	sbc	r31, r1
     856:	bf 01       	movw	r22, r30
     858:	88 27       	eor	r24, r24
     85a:	77 fd       	sbrc	r23, 7
     85c:	80 95       	com	r24
     85e:	98 2f       	mov	r25, r24
     860:	94 d6       	rcall	.+3368   	; 0x158a <__floatsisf>
     862:	ad 81       	ldd	r26, Y+5	; 0x05
     864:	be 81       	ldd	r27, Y+6	; 0x06
     866:	11 96       	adiw	r26, 0x01	; 1
     868:	2d 91       	ld	r18, X+
     86a:	3d 91       	ld	r19, X+
     86c:	4d 91       	ld	r20, X+
     86e:	5c 91       	ld	r21, X
     870:	14 97       	sbiw	r26, 0x04	; 4
     872:	3b d7       	rcall	.+3702   	; 0x16ea <__mulsf3>
     874:	5c d6       	rcall	.+3256   	; 0x152e <__fixunssfsi>
     876:	ed 81       	ldd	r30, Y+5	; 0x05
     878:	fe 81       	ldd	r31, Y+6	; 0x06
     87a:	65 83       	std	Z+5, r22	; 0x05
     87c:	76 83       	std	Z+6, r23	; 0x06
     87e:	87 83       	std	Z+7, r24	; 0x07
     880:	90 87       	std	Z+8, r25	; 0x08
     882:	d7 01       	movw	r26, r14
     884:	3c 92       	st	X, r3
     886:	f8 01       	movw	r30, r16
     888:	80 81       	ld	r24, Z
     88a:	8d 7f       	andi	r24, 0xFD	; 253
     88c:	84 60       	ori	r24, 0x04	; 4
     88e:	80 83       	st	Z, r24
     890:	60 c0       	rjmp	.+192    	; 0x952 <setTimer+0x37c>
     892:	e6 e0       	ldi	r30, 0x06	; 6
     894:	d7 01       	movw	r26, r14
     896:	ec 93       	st	X, r30
     898:	5c c0       	rjmp	.+184    	; 0x952 <setTimer+0x37c>
     89a:	d9 dc       	rcall	.-1614   	; 0x24e <stopMotor>
     89c:	80 91 76 00 	lds	r24, 0x0076
     8a0:	81 50       	subi	r24, 0x01	; 1
     8a2:	80 93 76 00 	sts	0x0076, r24
     8a6:	f4 01       	movw	r30, r8
     8a8:	83 e0       	ldi	r24, 0x03	; 3
     8aa:	ee 0f       	add	r30, r30
     8ac:	ff 1f       	adc	r31, r31
     8ae:	8a 95       	dec	r24
     8b0:	e1 f7       	brne	.-8      	; 0x8aa <setTimer+0x2d4>
     8b2:	e1 56       	subi	r30, 0x61	; 97
     8b4:	ff 4f       	sbci	r31, 0xFF	; 255
     8b6:	84 81       	ldd	r24, Z+4	; 0x04
     8b8:	ad 81       	ldd	r26, Y+5	; 0x05
     8ba:	be 81       	ldd	r27, Y+6	; 0x06
     8bc:	8c 93       	st	X, r24
     8be:	d7 01       	movw	r26, r14
     8c0:	3c 92       	st	X, r3
     8c2:	90 81       	ld	r25, Z
     8c4:	f6 01       	movw	r30, r12
     8c6:	80 81       	ld	r24, Z
     8c8:	d8 01       	movw	r26, r16
     8ca:	98 17       	cp	r25, r24
     8cc:	08 f5       	brcc	.+66     	; 0x910 <setTimer+0x33a>
     8ce:	8c 91       	ld	r24, X
     8d0:	81 60       	ori	r24, 0x01	; 1
     8d2:	8c 93       	st	X, r24
     8d4:	80 81       	ld	r24, Z
     8d6:	90 e0       	ldi	r25, 0x00	; 0
     8d8:	ed 81       	ldd	r30, Y+5	; 0x05
     8da:	fe 81       	ldd	r31, Y+6	; 0x06
     8dc:	20 81       	ld	r18, Z
     8de:	82 1b       	sub	r24, r18
     8e0:	91 09       	sbc	r25, r1
     8e2:	bc 01       	movw	r22, r24
     8e4:	88 27       	eor	r24, r24
     8e6:	77 fd       	sbrc	r23, 7
     8e8:	80 95       	com	r24
     8ea:	98 2f       	mov	r25, r24
     8ec:	4e d6       	rcall	.+3228   	; 0x158a <__floatsisf>
     8ee:	ad 81       	ldd	r26, Y+5	; 0x05
     8f0:	be 81       	ldd	r27, Y+6	; 0x06
     8f2:	11 96       	adiw	r26, 0x01	; 1
     8f4:	2d 91       	ld	r18, X+
     8f6:	3d 91       	ld	r19, X+
     8f8:	4d 91       	ld	r20, X+
     8fa:	5c 91       	ld	r21, X
     8fc:	14 97       	sbiw	r26, 0x04	; 4
     8fe:	f5 d6       	rcall	.+3562   	; 0x16ea <__mulsf3>
     900:	16 d6       	rcall	.+3116   	; 0x152e <__fixunssfsi>
     902:	ed 81       	ldd	r30, Y+5	; 0x05
     904:	fe 81       	ldd	r31, Y+6	; 0x06
     906:	65 83       	std	Z+5, r22	; 0x05
     908:	76 83       	std	Z+6, r23	; 0x06
     90a:	87 83       	std	Z+7, r24	; 0x07
     90c:	90 87       	std	Z+8, r25	; 0x08
     90e:	21 c0       	rjmp	.+66     	; 0x952 <setTimer+0x37c>
     910:	8c 91       	ld	r24, X
     912:	8e 7f       	andi	r24, 0xFE	; 254
     914:	8c 93       	st	X, r24
     916:	ed 81       	ldd	r30, Y+5	; 0x05
     918:	fe 81       	ldd	r31, Y+6	; 0x06
     91a:	80 81       	ld	r24, Z
     91c:	90 e0       	ldi	r25, 0x00	; 0
     91e:	d6 01       	movw	r26, r12
     920:	2c 91       	ld	r18, X
     922:	82 1b       	sub	r24, r18
     924:	91 09       	sbc	r25, r1
     926:	bc 01       	movw	r22, r24
     928:	88 27       	eor	r24, r24
     92a:	77 fd       	sbrc	r23, 7
     92c:	80 95       	com	r24
     92e:	98 2f       	mov	r25, r24
     930:	2c d6       	rcall	.+3160   	; 0x158a <__floatsisf>
     932:	ed 81       	ldd	r30, Y+5	; 0x05
     934:	fe 81       	ldd	r31, Y+6	; 0x06
     936:	21 81       	ldd	r18, Z+1	; 0x01
     938:	32 81       	ldd	r19, Z+2	; 0x02
     93a:	43 81       	ldd	r20, Z+3	; 0x03
     93c:	54 81       	ldd	r21, Z+4	; 0x04
     93e:	d5 d6       	rcall	.+3498   	; 0x16ea <__mulsf3>
     940:	f6 d5       	rcall	.+3052   	; 0x152e <__fixunssfsi>
     942:	ad 81       	ldd	r26, Y+5	; 0x05
     944:	be 81       	ldd	r27, Y+6	; 0x06
     946:	15 96       	adiw	r26, 0x05	; 5
     948:	6d 93       	st	X+, r22
     94a:	7d 93       	st	X+, r23
     94c:	8d 93       	st	X+, r24
     94e:	9c 93       	st	X, r25
     950:	18 97       	sbiw	r26, 0x08	; 8
     952:	bf ef       	ldi	r27, 0xFF	; 255
     954:	8b 1a       	sub	r8, r27
     956:	9b 0a       	sbc	r9, r27
     958:	ef e0       	ldi	r30, 0x0F	; 15
     95a:	ce 0e       	add	r12, r30
     95c:	d1 1c       	adc	r13, r1
     95e:	01 5f       	subi	r16, 0xF1	; 241
     960:	1f 4f       	sbci	r17, 0xFF	; 255
     962:	2d 81       	ldd	r18, Y+5	; 0x05
     964:	3e 81       	ldd	r19, Y+6	; 0x06
     966:	21 5f       	subi	r18, 0xF1	; 241
     968:	3f 4f       	sbci	r19, 0xFF	; 255
     96a:	3e 83       	std	Y+6, r19	; 0x06
     96c:	2d 83       	std	Y+5, r18	; 0x05
     96e:	3f e0       	ldi	r19, 0x0F	; 15
     970:	e3 0e       	add	r14, r19
     972:	f1 1c       	adc	r15, r1
     974:	42 e0       	ldi	r20, 0x02	; 2
     976:	84 16       	cp	r8, r20
     978:	91 04       	cpc	r9, r1
     97a:	09 f0       	breq	.+2      	; 0x97e <setTimer+0x3a8>
     97c:	6b ce       	rjmp	.-810    	; 0x654 <setTimer+0x7e>
     97e:	80 91 b5 00 	lds	r24, 0x00B5
     982:	90 91 b6 00 	lds	r25, 0x00B6
     986:	a0 91 b7 00 	lds	r26, 0x00B7
     98a:	b0 91 b8 00 	lds	r27, 0x00B8
     98e:	8f 3f       	cpi	r24, 0xFF	; 255
     990:	5f ef       	ldi	r21, 0xFF	; 255
     992:	95 07       	cpc	r25, r21
     994:	a1 05       	cpc	r26, r1
     996:	b1 05       	cpc	r27, r1
     998:	30 f4       	brcc	.+12     	; 0x9a6 <setTimer+0x3d0>
     99a:	00 97       	sbiw	r24, 0x00	; 0
     99c:	a1 05       	cpc	r26, r1
     99e:	b1 05       	cpc	r27, r1
     9a0:	31 f0       	breq	.+12     	; 0x9ae <setTimer+0x3d8>
     9a2:	9c 01       	movw	r18, r24
     9a4:	02 c0       	rjmp	.+4      	; 0x9aa <setTimer+0x3d4>
     9a6:	2f ef       	ldi	r18, 0xFF	; 255
     9a8:	3f ef       	ldi	r19, 0xFF	; 255
     9aa:	e1 e0       	ldi	r30, 0x01	; 1
     9ac:	03 c0       	rjmp	.+6      	; 0x9b4 <setTimer+0x3de>
     9ae:	2f ef       	ldi	r18, 0xFF	; 255
     9b0:	3f ef       	ldi	r19, 0xFF	; 255
     9b2:	e0 e0       	ldi	r30, 0x00	; 0
     9b4:	80 91 c4 00 	lds	r24, 0x00C4
     9b8:	90 91 c5 00 	lds	r25, 0x00C5
     9bc:	a0 91 c6 00 	lds	r26, 0x00C6
     9c0:	b0 91 c7 00 	lds	r27, 0x00C7
     9c4:	a9 01       	movw	r20, r18
     9c6:	60 e0       	ldi	r22, 0x00	; 0
     9c8:	70 e0       	ldi	r23, 0x00	; 0
     9ca:	84 17       	cp	r24, r20
     9cc:	95 07       	cpc	r25, r21
     9ce:	a6 07       	cpc	r26, r22
     9d0:	b7 07       	cpc	r27, r23
     9d2:	28 f4       	brcc	.+10     	; 0x9de <setTimer+0x408>
     9d4:	00 97       	sbiw	r24, 0x00	; 0
     9d6:	a1 05       	cpc	r26, r1
     9d8:	b1 05       	cpc	r27, r1
     9da:	49 f0       	breq	.+18     	; 0x9ee <setTimer+0x418>
     9dc:	9c 01       	movw	r18, r24
     9de:	3b bd       	out	0x2b, r19	; 43
     9e0:	2a bd       	out	0x2a, r18	; 42
     9e2:	1d bc       	out	0x2d, r1	; 45
     9e4:	1c bc       	out	0x2c, r1	; 44
     9e6:	8e b5       	in	r24, 0x2e	; 46
     9e8:	83 60       	ori	r24, 0x03	; 3
     9ea:	8e bd       	out	0x2e, r24	; 46
     9ec:	02 c0       	rjmp	.+4      	; 0x9f2 <setTimer+0x41c>
     9ee:	e1 11       	cpse	r30, r1
     9f0:	f6 cf       	rjmp	.-20     	; 0x9de <setTimer+0x408>
     9f2:	26 96       	adiw	r28, 0x06	; 6
     9f4:	0f b6       	in	r0, 0x3f	; 63
     9f6:	f8 94       	cli
     9f8:	de bf       	out	0x3e, r29	; 62
     9fa:	0f be       	out	0x3f, r0	; 63
     9fc:	cd bf       	out	0x3d, r28	; 61
     9fe:	df 91       	pop	r29
     a00:	cf 91       	pop	r28
     a02:	1f 91       	pop	r17
     a04:	0f 91       	pop	r16
     a06:	ff 90       	pop	r15
     a08:	ef 90       	pop	r14
     a0a:	df 90       	pop	r13
     a0c:	cf 90       	pop	r12
     a0e:	bf 90       	pop	r11
     a10:	af 90       	pop	r10
     a12:	9f 90       	pop	r9
     a14:	8f 90       	pop	r8
     a16:	7f 90       	pop	r7
     a18:	6f 90       	pop	r6
     a1a:	5f 90       	pop	r5
     a1c:	4f 90       	pop	r4
     a1e:	3f 90       	pop	r3
     a20:	2f 90       	pop	r2
     a22:	08 95       	ret

00000a24 <workFader>:
     a24:	2f 92       	push	r2
     a26:	3f 92       	push	r3
     a28:	4f 92       	push	r4
     a2a:	5f 92       	push	r5
     a2c:	6f 92       	push	r6
     a2e:	7f 92       	push	r7
     a30:	8f 92       	push	r8
     a32:	9f 92       	push	r9
     a34:	af 92       	push	r10
     a36:	bf 92       	push	r11
     a38:	cf 92       	push	r12
     a3a:	df 92       	push	r13
     a3c:	ef 92       	push	r14
     a3e:	ff 92       	push	r15
     a40:	0f 93       	push	r16
     a42:	1f 93       	push	r17
     a44:	cf 93       	push	r28
     a46:	df 93       	push	r29
     a48:	29 eb       	ldi	r18, 0xB9	; 185
     a4a:	c2 2e       	mov	r12, r18
     a4c:	20 e0       	ldi	r18, 0x00	; 0
     a4e:	d2 2e       	mov	r13, r18
     a50:	3f ea       	ldi	r19, 0xAF	; 175
     a52:	83 2e       	mov	r8, r19
     a54:	30 e0       	ldi	r19, 0x00	; 0
     a56:	93 2e       	mov	r9, r19
     a58:	c0 eb       	ldi	r28, 0xB0	; 176
     a5a:	d0 e0       	ldi	r29, 0x00	; 0
     a5c:	4d eb       	ldi	r20, 0xBD	; 189
     a5e:	e4 2e       	mov	r14, r20
     a60:	40 e0       	ldi	r20, 0x00	; 0
     a62:	f4 2e       	mov	r15, r20
     a64:	0a eb       	ldi	r16, 0xBA	; 186
     a66:	10 e0       	ldi	r17, 0x00	; 0
     a68:	a1 2c       	mov	r10, r1
     a6a:	b1 2c       	mov	r11, r1
     a6c:	54 e0       	ldi	r21, 0x04	; 4
     a6e:	55 2e       	mov	r5, r21
     a70:	67 e0       	ldi	r22, 0x07	; 7
     a72:	46 2e       	mov	r4, r22
     a74:	22 24       	eor	r2, r2
     a76:	2a 94       	dec	r2
     a78:	31 2c       	mov	r3, r1
     a7a:	7a 2c       	mov	r7, r10
     a7c:	d6 01       	movw	r26, r12
     a7e:	2c 91       	ld	r18, X
     a80:	23 30       	cpi	r18, 0x03	; 3
     a82:	b9 f1       	breq	.+110    	; 0xaf2 <workFader+0xce>
     a84:	30 f4       	brcc	.+12     	; 0xa92 <workFader+0x6e>
     a86:	21 30       	cpi	r18, 0x01	; 1
     a88:	61 f0       	breq	.+24     	; 0xaa2 <workFader+0x7e>
     a8a:	22 30       	cpi	r18, 0x02	; 2
     a8c:	09 f4       	brne	.+2      	; 0xa90 <workFader+0x6c>
     a8e:	5d c1       	rjmp	.+698    	; 0xd4a <workFader+0x326>
     a90:	80 c1       	rjmp	.+768    	; 0xd92 <workFader+0x36e>
     a92:	25 30       	cpi	r18, 0x05	; 5
     a94:	09 f4       	brne	.+2      	; 0xa98 <workFader+0x74>
     a96:	59 c1       	rjmp	.+690    	; 0xd4a <workFader+0x326>
     a98:	20 f0       	brcs	.+8      	; 0xaa2 <workFader+0x7e>
     a9a:	26 30       	cpi	r18, 0x06	; 6
     a9c:	09 f4       	brne	.+2      	; 0xaa0 <workFader+0x7c>
     a9e:	8c c0       	rjmp	.+280    	; 0xbb8 <workFader+0x194>
     aa0:	78 c1       	rjmp	.+752    	; 0xd92 <workFader+0x36e>
     aa2:	80 91 76 00 	lds	r24, 0x0076
     aa6:	84 30       	cpi	r24, 0x04	; 4
     aa8:	08 f0       	brcs	.+2      	; 0xaac <workFader+0x88>
     aaa:	73 c1       	rjmp	.+742    	; 0xd92 <workFader+0x36e>
     aac:	8d 81       	ldd	r24, Y+5	; 0x05
     aae:	9e 81       	ldd	r25, Y+6	; 0x06
     ab0:	af 81       	ldd	r26, Y+7	; 0x07
     ab2:	b8 85       	ldd	r27, Y+8	; 0x08
     ab4:	89 2b       	or	r24, r25
     ab6:	8a 2b       	or	r24, r26
     ab8:	8b 2b       	or	r24, r27
     aba:	09 f4       	brne	.+2      	; 0xabe <workFader+0x9a>
     abc:	6a c1       	rjmp	.+724    	; 0xd92 <workFader+0x36e>
     abe:	2f 5f       	subi	r18, 0xFF	; 255
     ac0:	f6 01       	movw	r30, r12
     ac2:	20 83       	st	Z, r18
     ac4:	f5 01       	movw	r30, r10
     ac6:	93 e0       	ldi	r25, 0x03	; 3
     ac8:	ee 0f       	add	r30, r30
     aca:	ff 1f       	adc	r31, r31
     acc:	9a 95       	dec	r25
     ace:	e1 f7       	brne	.-8      	; 0xac8 <workFader+0xa4>
     ad0:	e1 56       	subi	r30, 0x61	; 97
     ad2:	ff 4f       	sbci	r31, 0xFF	; 255
     ad4:	84 81       	ldd	r24, Z+4	; 0x04
     ad6:	88 83       	st	Y, r24
     ad8:	87 2d       	mov	r24, r7
     ada:	7d dd       	rcall	.-1286   	; 0x5d6 <setTimer>
     adc:	d8 01       	movw	r26, r16
     ade:	6c 91       	ld	r22, X
     ae0:	61 70       	andi	r22, 0x01	; 1
     ae2:	87 2d       	mov	r24, r7
     ae4:	4a db       	rcall	.-2412   	; 0x17a <startMotor>
     ae6:	80 91 76 00 	lds	r24, 0x0076
     aea:	8f 5f       	subi	r24, 0xFF	; 255
     aec:	80 93 76 00 	sts	0x0076, r24
     af0:	50 c1       	rjmp	.+672    	; 0xd92 <workFader+0x36e>
     af2:	f8 01       	movw	r30, r16
     af4:	80 81       	ld	r24, Z
     af6:	80 ff       	sbrs	r24, 0
     af8:	12 c0       	rjmp	.+36     	; 0xb1e <workFader+0xfa>
     afa:	f5 01       	movw	r30, r10
     afc:	83 e0       	ldi	r24, 0x03	; 3
     afe:	ee 0f       	add	r30, r30
     b00:	ff 1f       	adc	r31, r31
     b02:	8a 95       	dec	r24
     b04:	e1 f7       	brne	.-8      	; 0xafe <workFader+0xda>
     b06:	e1 56       	subi	r30, 0x61	; 97
     b08:	ff 4f       	sbci	r31, 0xFF	; 255
     b0a:	84 81       	ldd	r24, Z+4	; 0x04
     b0c:	28 81       	ld	r18, Y
     b0e:	30 e0       	ldi	r19, 0x00	; 0
     b10:	28 5f       	subi	r18, 0xF8	; 248
     b12:	3f 4f       	sbci	r19, 0xFF	; 255
     b14:	90 e0       	ldi	r25, 0x00	; 0
     b16:	28 17       	cp	r18, r24
     b18:	39 07       	cpc	r19, r25
     b1a:	ac f4       	brge	.+42     	; 0xb46 <workFader+0x122>
     b1c:	30 c0       	rjmp	.+96     	; 0xb7e <workFader+0x15a>
     b1e:	81 11       	cpse	r24, r1
     b20:	2e c0       	rjmp	.+92     	; 0xb7e <workFader+0x15a>
     b22:	88 81       	ld	r24, Y
     b24:	90 e0       	ldi	r25, 0x00	; 0
     b26:	f5 01       	movw	r30, r10
     b28:	b3 e0       	ldi	r27, 0x03	; 3
     b2a:	ee 0f       	add	r30, r30
     b2c:	ff 1f       	adc	r31, r31
     b2e:	ba 95       	dec	r27
     b30:	e1 f7       	brne	.-8      	; 0xb2a <workFader+0x106>
     b32:	e1 56       	subi	r30, 0x61	; 97
     b34:	ff 4f       	sbci	r31, 0xFF	; 255
     b36:	24 81       	ldd	r18, Z+4	; 0x04
     b38:	ac 01       	movw	r20, r24
     b3a:	48 50       	subi	r20, 0x08	; 8
     b3c:	51 09       	sbc	r21, r1
     b3e:	30 e0       	ldi	r19, 0x00	; 0
     b40:	24 17       	cp	r18, r20
     b42:	35 07       	cpc	r19, r21
     b44:	b4 f0       	brlt	.+44     	; 0xb72 <workFader+0x14e>
     b46:	f5 01       	movw	r30, r10
     b48:	a3 e0       	ldi	r26, 0x03	; 3
     b4a:	ee 0f       	add	r30, r30
     b4c:	ff 1f       	adc	r31, r31
     b4e:	aa 95       	dec	r26
     b50:	e1 f7       	brne	.-8      	; 0xb4a <workFader+0x126>
     b52:	e1 56       	subi	r30, 0x61	; 97
     b54:	ff 4f       	sbci	r31, 0xFF	; 255
     b56:	84 81       	ldd	r24, Z+4	; 0x04
     b58:	88 83       	st	Y, r24
     b5a:	d6 01       	movw	r26, r12
     b5c:	4c 92       	st	X, r4
     b5e:	20 e0       	ldi	r18, 0x00	; 0
     b60:	30 e0       	ldi	r19, 0x00	; 0
     b62:	4a ec       	ldi	r20, 0xCA	; 202
     b64:	58 e0       	ldi	r21, 0x08	; 8
     b66:	2d 83       	std	Y+5, r18	; 0x05
     b68:	3e 83       	std	Y+6, r19	; 0x06
     b6a:	4f 83       	std	Y+7, r20	; 0x07
     b6c:	58 87       	std	Y+8, r21	; 0x08
     b6e:	87 2d       	mov	r24, r7
     b70:	0f c1       	rjmp	.+542    	; 0xd90 <workFader+0x36c>
     b72:	0a 97       	sbiw	r24, 0x0a	; 10
     b74:	d4 01       	movw	r26, r8
     b76:	2c 91       	ld	r18, X
     b78:	82 1b       	sub	r24, r18
     b7a:	91 09       	sbc	r25, r1
     b7c:	0a c0       	rjmp	.+20     	; 0xb92 <workFader+0x16e>
     b7e:	f4 01       	movw	r30, r8
     b80:	20 81       	ld	r18, Z
     b82:	88 81       	ld	r24, Y
     b84:	46 ef       	ldi	r20, 0xF6	; 246
     b86:	5f ef       	ldi	r21, 0xFF	; 255
     b88:	48 1b       	sub	r20, r24
     b8a:	51 09       	sbc	r21, r1
     b8c:	ca 01       	movw	r24, r20
     b8e:	82 0f       	add	r24, r18
     b90:	91 1d       	adc	r25, r1
     b92:	bc 01       	movw	r22, r24
     b94:	88 27       	eor	r24, r24
     b96:	77 fd       	sbrc	r23, 7
     b98:	80 95       	com	r24
     b9a:	98 2f       	mov	r25, r24
     b9c:	f6 d4       	rcall	.+2540   	; 0x158a <__floatsisf>
     b9e:	29 81       	ldd	r18, Y+1	; 0x01
     ba0:	3a 81       	ldd	r19, Y+2	; 0x02
     ba2:	4b 81       	ldd	r20, Y+3	; 0x03
     ba4:	5c 81       	ldd	r21, Y+4	; 0x04
     ba6:	a1 d5       	rcall	.+2882   	; 0x16ea <__mulsf3>
     ba8:	c2 d4       	rcall	.+2436   	; 0x152e <__fixunssfsi>
     baa:	6d 83       	std	Y+5, r22	; 0x05
     bac:	7e 83       	std	Y+6, r23	; 0x06
     bae:	8f 83       	std	Y+7, r24	; 0x07
     bb0:	98 87       	std	Y+8, r25	; 0x08
     bb2:	d6 01       	movw	r26, r12
     bb4:	5c 92       	st	X, r5
     bb6:	ed c0       	rjmp	.+474    	; 0xd92 <workFader+0x36e>
     bb8:	f8 01       	movw	r30, r16
     bba:	20 81       	ld	r18, Z
     bbc:	c5 01       	movw	r24, r10
     bbe:	f3 e0       	ldi	r31, 0x03	; 3
     bc0:	88 0f       	add	r24, r24
     bc2:	99 1f       	adc	r25, r25
     bc4:	fa 95       	dec	r31
     bc6:	e1 f7       	brne	.-8      	; 0xbc0 <workFader+0x19c>
     bc8:	fc 01       	movw	r30, r24
     bca:	e1 56       	subi	r30, 0x61	; 97
     bcc:	ff 4f       	sbci	r31, 0xFF	; 255
     bce:	22 ff       	sbrs	r18, 2
     bd0:	5c c0       	rjmp	.+184    	; 0xc8a <workFader+0x266>
     bd2:	24 81       	ldd	r18, Z+4	; 0x04
     bd4:	2f 3f       	cpi	r18, 0xFF	; 255
     bd6:	29 f0       	breq	.+10     	; 0xbe2 <workFader+0x1be>
     bd8:	d7 01       	movw	r26, r14
     bda:	2c 91       	ld	r18, X
     bdc:	24 36       	cpi	r18, 0x64	; 100
     bde:	08 f4       	brcc	.+2      	; 0xbe2 <workFader+0x1be>
     be0:	42 c0       	rjmp	.+132    	; 0xc66 <workFader+0x242>
     be2:	f7 01       	movw	r30, r14
     be4:	10 82       	st	Z, r1
     be6:	9c 01       	movw	r18, r24
     be8:	21 56       	subi	r18, 0x61	; 97
     bea:	3f 4f       	sbci	r19, 0xFF	; 255
     bec:	39 01       	movw	r6, r18
     bee:	d9 01       	movw	r26, r18
     bf0:	17 96       	adiw	r26, 0x07	; 7
     bf2:	8c 91       	ld	r24, X
     bf4:	17 97       	sbiw	r26, 0x07	; 7
     bf6:	32 97       	sbiw	r30, 0x02	; 2
     bf8:	80 83       	st	Z, r24
     bfa:	17 96       	adiw	r26, 0x07	; 7
     bfc:	6c 91       	ld	r22, X
     bfe:	70 e0       	ldi	r23, 0x00	; 0
     c00:	80 e0       	ldi	r24, 0x00	; 0
     c02:	90 e0       	ldi	r25, 0x00	; 0
     c04:	c2 d4       	rcall	.+2436   	; 0x158a <__floatsisf>
     c06:	20 e0       	ldi	r18, 0x00	; 0
     c08:	30 e0       	ldi	r19, 0x00	; 0
     c0a:	4f e7       	ldi	r20, 0x7F	; 127
     c0c:	53 e4       	ldi	r21, 0x43	; 67
     c0e:	27 d4       	rcall	.+2126   	; 0x145e <__divsf3>
     c10:	9b 01       	movw	r18, r22
     c12:	ac 01       	movw	r20, r24
     c14:	69 81       	ldd	r22, Y+1	; 0x01
     c16:	7a 81       	ldd	r23, Y+2	; 0x02
     c18:	8b 81       	ldd	r24, Y+3	; 0x03
     c1a:	9c 81       	ldd	r25, Y+4	; 0x04
     c1c:	66 d5       	rcall	.+2764   	; 0x16ea <__mulsf3>
     c1e:	69 83       	std	Y+1, r22	; 0x01
     c20:	7a 83       	std	Y+2, r23	; 0x02
     c22:	8b 83       	std	Y+3, r24	; 0x03
     c24:	9c 83       	std	Y+4, r25	; 0x04
     c26:	f8 01       	movw	r30, r16
     c28:	80 81       	ld	r24, Z
     c2a:	8b 7f       	andi	r24, 0xFB	; 251
     c2c:	88 60       	ori	r24, 0x08	; 8
     c2e:	80 83       	st	Z, r24
     c30:	d3 01       	movw	r26, r6
     c32:	14 96       	adiw	r26, 0x04	; 4
     c34:	8c 91       	ld	r24, X
     c36:	88 83       	st	Y, r24
     c38:	f6 01       	movw	r30, r12
     c3a:	50 82       	st	Z, r5
     c3c:	d8 01       	movw	r26, r16
     c3e:	8c 91       	ld	r24, X
     c40:	8e 7f       	andi	r24, 0xFE	; 254
     c42:	8c 93       	st	X, r24
     c44:	68 81       	ld	r22, Y
     c46:	70 e0       	ldi	r23, 0x00	; 0
     c48:	80 e0       	ldi	r24, 0x00	; 0
     c4a:	90 e0       	ldi	r25, 0x00	; 0
     c4c:	9e d4       	rcall	.+2364   	; 0x158a <__floatsisf>
     c4e:	29 81       	ldd	r18, Y+1	; 0x01
     c50:	3a 81       	ldd	r19, Y+2	; 0x02
     c52:	4b 81       	ldd	r20, Y+3	; 0x03
     c54:	5c 81       	ldd	r21, Y+4	; 0x04
     c56:	49 d5       	rcall	.+2706   	; 0x16ea <__mulsf3>
     c58:	6a d4       	rcall	.+2260   	; 0x152e <__fixunssfsi>
     c5a:	6d 83       	std	Y+5, r22	; 0x05
     c5c:	7e 83       	std	Y+6, r23	; 0x06
     c5e:	8f 83       	std	Y+7, r24	; 0x07
     c60:	98 87       	std	Y+8, r25	; 0x08
     c62:	f4 01       	movw	r30, r8
     c64:	42 c0       	rjmp	.+132    	; 0xcea <workFader+0x2c6>
     c66:	84 81       	ldd	r24, Z+4	; 0x04
     c68:	88 83       	st	Y, r24
     c6a:	d6 01       	movw	r26, r12
     c6c:	5c 92       	st	X, r5
     c6e:	f7 01       	movw	r30, r14
     c70:	80 81       	ld	r24, Z
     c72:	8f 5f       	subi	r24, 0xFF	; 255
     c74:	80 83       	st	Z, r24
     c76:	d8 01       	movw	r26, r16
     c78:	8c 91       	ld	r24, X
     c7a:	81 60       	ori	r24, 0x01	; 1
     c7c:	8c 93       	st	X, r24
     c7e:	88 81       	ld	r24, Y
     c80:	f1 01       	movw	r30, r2
     c82:	e8 1b       	sub	r30, r24
     c84:	f1 09       	sbc	r31, r1
     c86:	cf 01       	movw	r24, r30
     c88:	4c c0       	rjmp	.+152    	; 0xd22 <workFader+0x2fe>
     c8a:	23 ff       	sbrs	r18, 3
     c8c:	28 c0       	rjmp	.+80     	; 0xcde <workFader+0x2ba>
     c8e:	24 81       	ldd	r18, Z+4	; 0x04
     c90:	22 23       	and	r18, r18
     c92:	21 f0       	breq	.+8      	; 0xc9c <workFader+0x278>
     c94:	d7 01       	movw	r26, r14
     c96:	2c 91       	ld	r18, X
     c98:	24 36       	cpi	r18, 0x64	; 100
     c9a:	80 f0       	brcs	.+32     	; 0xcbc <workFader+0x298>
     c9c:	f6 01       	movw	r30, r12
     c9e:	10 82       	st	Z, r1
     ca0:	d7 01       	movw	r26, r14
     ca2:	1c 92       	st	X, r1
     ca4:	fc 01       	movw	r30, r24
     ca6:	e1 56       	subi	r30, 0x61	; 97
     ca8:	ff 4f       	sbci	r31, 0xFF	; 255
     caa:	87 81       	ldd	r24, Z+7	; 0x07
     cac:	f7 01       	movw	r30, r14
     cae:	31 97       	sbiw	r30, 0x01	; 1
     cb0:	80 83       	st	Z, r24
     cb2:	f8 01       	movw	r30, r16
     cb4:	80 81       	ld	r24, Z
     cb6:	87 7f       	andi	r24, 0xF7	; 247
     cb8:	80 83       	st	Z, r24
     cba:	6b c0       	rjmp	.+214    	; 0xd92 <workFader+0x36e>
     cbc:	84 81       	ldd	r24, Z+4	; 0x04
     cbe:	88 83       	st	Y, r24
     cc0:	d6 01       	movw	r26, r12
     cc2:	5c 92       	st	X, r5
     cc4:	f7 01       	movw	r30, r14
     cc6:	80 81       	ld	r24, Z
     cc8:	8f 5f       	subi	r24, 0xFF	; 255
     cca:	80 83       	st	Z, r24
     ccc:	d8 01       	movw	r26, r16
     cce:	8c 91       	ld	r24, X
     cd0:	8e 7f       	andi	r24, 0xFE	; 254
     cd2:	8c 93       	st	X, r24
     cd4:	68 81       	ld	r22, Y
     cd6:	70 e0       	ldi	r23, 0x00	; 0
     cd8:	80 e0       	ldi	r24, 0x00	; 0
     cda:	90 e0       	ldi	r25, 0x00	; 0
     cdc:	27 c0       	rjmp	.+78     	; 0xd2c <workFader+0x308>
     cde:	94 81       	ldd	r25, Z+4	; 0x04
     ce0:	d4 01       	movw	r26, r8
     ce2:	8c 91       	ld	r24, X
     ce4:	98 13       	cpse	r25, r24
     ce6:	03 c0       	rjmp	.+6      	; 0xcee <workFader+0x2ca>
     ce8:	f6 01       	movw	r30, r12
     cea:	10 82       	st	Z, r1
     cec:	52 c0       	rjmp	.+164    	; 0xd92 <workFader+0x36e>
     cee:	84 81       	ldd	r24, Z+4	; 0x04
     cf0:	88 83       	st	Y, r24
     cf2:	d6 01       	movw	r26, r12
     cf4:	5c 92       	st	X, r5
     cf6:	24 81       	ldd	r18, Z+4	; 0x04
     cf8:	f4 01       	movw	r30, r8
     cfa:	90 81       	ld	r25, Z
     cfc:	d8 01       	movw	r26, r16
     cfe:	8c 91       	ld	r24, X
     d00:	29 17       	cp	r18, r25
     d02:	30 f4       	brcc	.+12     	; 0xd10 <workFader+0x2ec>
     d04:	81 60       	ori	r24, 0x01	; 1
     d06:	8c 93       	st	X, r24
     d08:	80 81       	ld	r24, Z
     d0a:	90 e0       	ldi	r25, 0x00	; 0
     d0c:	28 81       	ld	r18, Y
     d0e:	07 c0       	rjmp	.+14     	; 0xd1e <workFader+0x2fa>
     d10:	8e 7f       	andi	r24, 0xFE	; 254
     d12:	f8 01       	movw	r30, r16
     d14:	80 83       	st	Z, r24
     d16:	88 81       	ld	r24, Y
     d18:	90 e0       	ldi	r25, 0x00	; 0
     d1a:	d4 01       	movw	r26, r8
     d1c:	2c 91       	ld	r18, X
     d1e:	82 1b       	sub	r24, r18
     d20:	91 09       	sbc	r25, r1
     d22:	bc 01       	movw	r22, r24
     d24:	88 27       	eor	r24, r24
     d26:	77 fd       	sbrc	r23, 7
     d28:	80 95       	com	r24
     d2a:	98 2f       	mov	r25, r24
     d2c:	2e d4       	rcall	.+2140   	; 0x158a <__floatsisf>
     d2e:	29 81       	ldd	r18, Y+1	; 0x01
     d30:	3a 81       	ldd	r19, Y+2	; 0x02
     d32:	4b 81       	ldd	r20, Y+3	; 0x03
     d34:	5c 81       	ldd	r21, Y+4	; 0x04
     d36:	d9 d4       	rcall	.+2482   	; 0x16ea <__mulsf3>
     d38:	9b 01       	movw	r18, r22
     d3a:	ac 01       	movw	r20, r24
     d3c:	28 d3       	rcall	.+1616   	; 0x138e <__addsf3>
     d3e:	f7 d3       	rcall	.+2030   	; 0x152e <__fixunssfsi>
     d40:	6d 83       	std	Y+5, r22	; 0x05
     d42:	7e 83       	std	Y+6, r23	; 0x06
     d44:	8f 83       	std	Y+7, r24	; 0x07
     d46:	98 87       	std	Y+8, r25	; 0x08
     d48:	24 c0       	rjmp	.+72     	; 0xd92 <workFader+0x36e>
     d4a:	28 81       	ld	r18, Y
     d4c:	c5 01       	movw	r24, r10
     d4e:	e3 e0       	ldi	r30, 0x03	; 3
     d50:	88 0f       	add	r24, r24
     d52:	99 1f       	adc	r25, r25
     d54:	ea 95       	dec	r30
     d56:	e1 f7       	brne	.-8      	; 0xd50 <workFader+0x32c>
     d58:	22 23       	and	r18, r18
     d5a:	41 f0       	breq	.+16     	; 0xd6c <workFader+0x348>
     d5c:	fc 01       	movw	r30, r24
     d5e:	e1 56       	subi	r30, 0x61	; 97
     d60:	ff 4f       	sbci	r31, 0xFF	; 255
     d62:	34 81       	ldd	r19, Z+4	; 0x04
     d64:	33 23       	and	r19, r19
     d66:	41 f0       	breq	.+16     	; 0xd78 <workFader+0x354>
     d68:	2f 3f       	cpi	r18, 0xFF	; 255
     d6a:	99 f0       	breq	.+38     	; 0xd92 <workFader+0x36e>
     d6c:	fc 01       	movw	r30, r24
     d6e:	e1 56       	subi	r30, 0x61	; 97
     d70:	ff 4f       	sbci	r31, 0xFF	; 255
     d72:	84 81       	ldd	r24, Z+4	; 0x04
     d74:	8f 3f       	cpi	r24, 0xFF	; 255
     d76:	69 f4       	brne	.+26     	; 0xd92 <workFader+0x36e>
     d78:	8e b5       	in	r24, 0x2e	; 46
     d7a:	8c 7f       	andi	r24, 0xFC	; 252
     d7c:	8e bd       	out	0x2e, r24	; 46
     d7e:	8c b5       	in	r24, 0x2c	; 44
     d80:	9d b5       	in	r25, 0x2d	; 45
     d82:	a0 e0       	ldi	r26, 0x00	; 0
     d84:	b0 e0       	ldi	r27, 0x00	; 0
     d86:	8d 83       	std	Y+5, r24	; 0x05
     d88:	9e 83       	std	Y+6, r25	; 0x06
     d8a:	af 83       	std	Y+7, r26	; 0x07
     d8c:	b8 87       	std	Y+8, r27	; 0x08
     d8e:	82 e0       	ldi	r24, 0x02	; 2
     d90:	22 dc       	rcall	.-1980   	; 0x5d6 <setTimer>
     d92:	bf ef       	ldi	r27, 0xFF	; 255
     d94:	ab 1a       	sub	r10, r27
     d96:	bb 0a       	sbc	r11, r27
     d98:	ef e0       	ldi	r30, 0x0F	; 15
     d9a:	ce 0e       	add	r12, r30
     d9c:	d1 1c       	adc	r13, r1
     d9e:	ff e0       	ldi	r31, 0x0F	; 15
     da0:	8f 0e       	add	r8, r31
     da2:	91 1c       	adc	r9, r1
     da4:	2f 96       	adiw	r28, 0x0f	; 15
     da6:	2f e0       	ldi	r18, 0x0F	; 15
     da8:	e2 0e       	add	r14, r18
     daa:	f1 1c       	adc	r15, r1
     dac:	01 5f       	subi	r16, 0xF1	; 241
     dae:	1f 4f       	sbci	r17, 0xFF	; 255
     db0:	32 e0       	ldi	r19, 0x02	; 2
     db2:	a3 16       	cp	r10, r19
     db4:	b1 04       	cpc	r11, r1
     db6:	09 f0       	breq	.+2      	; 0xdba <workFader+0x396>
     db8:	60 ce       	rjmp	.-832    	; 0xa7a <workFader+0x56>
     dba:	df 91       	pop	r29
     dbc:	cf 91       	pop	r28
     dbe:	1f 91       	pop	r17
     dc0:	0f 91       	pop	r16
     dc2:	ff 90       	pop	r15
     dc4:	ef 90       	pop	r14
     dc6:	df 90       	pop	r13
     dc8:	cf 90       	pop	r12
     dca:	bf 90       	pop	r11
     dcc:	af 90       	pop	r10
     dce:	9f 90       	pop	r9
     dd0:	8f 90       	pop	r8
     dd2:	7f 90       	pop	r7
     dd4:	6f 90       	pop	r6
     dd6:	5f 90       	pop	r5
     dd8:	4f 90       	pop	r4
     dda:	3f 90       	pop	r3
     ddc:	2f 90       	pop	r2
     dde:	08 95       	ret

00000de0 <gotoPosition>:
     de0:	cf 93       	push	r28
     de2:	df 93       	push	r29
     de4:	a6 2f       	mov	r26, r22
     de6:	90 e0       	ldi	r25, 0x00	; 0
     de8:	9c 01       	movw	r18, r24
     dea:	e3 e0       	ldi	r30, 0x03	; 3
     dec:	22 0f       	add	r18, r18
     dee:	33 1f       	adc	r19, r19
     df0:	ea 95       	dec	r30
     df2:	e1 f7       	brne	.-8      	; 0xdec <gotoPosition+0xc>
     df4:	f9 01       	movw	r30, r18
     df6:	e1 56       	subi	r30, 0x61	; 97
     df8:	ff 4f       	sbci	r31, 0xFF	; 255
     dfa:	44 81       	ldd	r20, Z+4	; 0x04
     dfc:	64 17       	cp	r22, r20
     dfe:	09 f4       	brne	.+2      	; 0xe02 <gotoPosition+0x22>
     e00:	6d c0       	rjmp	.+218    	; 0xedc <gotoPosition+0xfc>
     e02:	b4 81       	ldd	r27, Z+4	; 0x04
     e04:	4f e0       	ldi	r20, 0x0F	; 15
     e06:	48 9f       	mul	r20, r24
     e08:	f0 01       	movw	r30, r0
     e0a:	49 9f       	mul	r20, r25
     e0c:	f0 0d       	add	r31, r0
     e0e:	11 24       	eor	r1, r1
     e10:	e1 55       	subi	r30, 0x51	; 81
     e12:	ff 4f       	sbci	r31, 0xFF	; 255
     e14:	b1 83       	std	Z+1, r27	; 0x01
     e16:	60 83       	st	Z, r22
     e18:	40 e0       	ldi	r20, 0x00	; 0
     e1a:	50 e0       	ldi	r21, 0x00	; 0
     e1c:	68 ec       	ldi	r22, 0xC8	; 200
     e1e:	72 e4       	ldi	r23, 0x42	; 66
     e20:	42 83       	std	Z+2, r20	; 0x02
     e22:	53 83       	std	Z+3, r21	; 0x03
     e24:	64 83       	std	Z+4, r22	; 0x04
     e26:	75 83       	std	Z+5, r23	; 0x05
     e28:	43 85       	ldd	r20, Z+11	; 0x0b
     e2a:	ab 17       	cp	r26, r27
     e2c:	10 f4       	brcc	.+4      	; 0xe32 <gotoPosition+0x52>
     e2e:	4e 7f       	andi	r20, 0xFE	; 254
     e30:	01 c0       	rjmp	.+2      	; 0xe34 <gotoPosition+0x54>
     e32:	41 60       	ori	r20, 0x01	; 1
     e34:	43 87       	std	Z+11, r20	; 0x0b
     e36:	6a 2f       	mov	r22, r26
     e38:	70 e0       	ldi	r23, 0x00	; 0
     e3a:	f9 01       	movw	r30, r18
     e3c:	e1 56       	subi	r30, 0x61	; 97
     e3e:	ff 4f       	sbci	r31, 0xFF	; 255
     e40:	44 81       	ldd	r20, Z+4	; 0x04
     e42:	eb 01       	movw	r28, r22
     e44:	c4 1b       	sub	r28, r20
     e46:	d1 09       	sbc	r29, r1
     e48:	cb 30       	cpi	r28, 0x0B	; 11
     e4a:	d1 05       	cpc	r29, r1
     e4c:	1c f0       	brlt	.+6      	; 0xe54 <gotoPosition+0x74>
     e4e:	44 81       	ldd	r20, Z+4	; 0x04
     e50:	4a 17       	cp	r20, r26
     e52:	68 f0       	brcs	.+26     	; 0xe6e <gotoPosition+0x8e>
     e54:	f9 01       	movw	r30, r18
     e56:	e1 56       	subi	r30, 0x61	; 97
     e58:	ff 4f       	sbci	r31, 0xFF	; 255
     e5a:	44 81       	ldd	r20, Z+4	; 0x04
     e5c:	50 e0       	ldi	r21, 0x00	; 0
     e5e:	46 1b       	sub	r20, r22
     e60:	57 0b       	sbc	r21, r23
     e62:	4b 30       	cpi	r20, 0x0B	; 11
     e64:	51 05       	cpc	r21, r1
     e66:	dc f0       	brlt	.+54     	; 0xe9e <gotoPosition+0xbe>
     e68:	44 81       	ldd	r20, Z+4	; 0x04
     e6a:	a4 17       	cp	r26, r20
     e6c:	c0 f4       	brcc	.+48     	; 0xe9e <gotoPosition+0xbe>
     e6e:	2f e0       	ldi	r18, 0x0F	; 15
     e70:	28 9f       	mul	r18, r24
     e72:	e0 01       	movw	r28, r0
     e74:	29 9f       	mul	r18, r25
     e76:	d0 0d       	add	r29, r0
     e78:	11 24       	eor	r1, r1
     e7a:	c1 55       	subi	r28, 0x51	; 81
     e7c:	df 4f       	sbci	r29, 0xFF	; 255
     e7e:	20 e0       	ldi	r18, 0x00	; 0
     e80:	30 e0       	ldi	r19, 0x00	; 0
     e82:	40 e2       	ldi	r20, 0x20	; 32
     e84:	51 e4       	ldi	r21, 0x41	; 65
     e86:	6a 81       	ldd	r22, Y+2	; 0x02
     e88:	7b 81       	ldd	r23, Y+3	; 0x03
     e8a:	8c 81       	ldd	r24, Y+4	; 0x04
     e8c:	9d 81       	ldd	r25, Y+5	; 0x05
     e8e:	2d d4       	rcall	.+2138   	; 0x16ea <__mulsf3>
     e90:	4e d3       	rcall	.+1692   	; 0x152e <__fixunssfsi>
     e92:	6e 83       	std	Y+6, r22	; 0x06
     e94:	7f 83       	std	Y+7, r23	; 0x07
     e96:	88 87       	std	Y+8, r24	; 0x08
     e98:	99 87       	std	Y+9, r25	; 0x09
     e9a:	81 e0       	ldi	r24, 0x01	; 1
     e9c:	1e c0       	rjmp	.+60     	; 0xeda <gotoPosition+0xfa>
     e9e:	f9 01       	movw	r30, r18
     ea0:	e1 56       	subi	r30, 0x61	; 97
     ea2:	ff 4f       	sbci	r31, 0xFF	; 255
     ea4:	24 81       	ldd	r18, Z+4	; 0x04
     ea6:	3f e0       	ldi	r19, 0x0F	; 15
     ea8:	38 9f       	mul	r19, r24
     eaa:	e0 01       	movw	r28, r0
     eac:	39 9f       	mul	r19, r25
     eae:	d0 0d       	add	r29, r0
     eb0:	11 24       	eor	r1, r1
     eb2:	c1 55       	subi	r28, 0x51	; 81
     eb4:	df 4f       	sbci	r29, 0xFF	; 255
     eb6:	62 1b       	sub	r22, r18
     eb8:	71 09       	sbc	r23, r1
     eba:	88 27       	eor	r24, r24
     ebc:	77 fd       	sbrc	r23, 7
     ebe:	80 95       	com	r24
     ec0:	98 2f       	mov	r25, r24
     ec2:	63 d3       	rcall	.+1734   	; 0x158a <__floatsisf>
     ec4:	2a 81       	ldd	r18, Y+2	; 0x02
     ec6:	3b 81       	ldd	r19, Y+3	; 0x03
     ec8:	4c 81       	ldd	r20, Y+4	; 0x04
     eca:	5d 81       	ldd	r21, Y+5	; 0x05
     ecc:	0e d4       	rcall	.+2076   	; 0x16ea <__mulsf3>
     ece:	2f d3       	rcall	.+1630   	; 0x152e <__fixunssfsi>
     ed0:	6e 83       	std	Y+6, r22	; 0x06
     ed2:	7f 83       	std	Y+7, r23	; 0x07
     ed4:	88 87       	std	Y+8, r24	; 0x08
     ed6:	99 87       	std	Y+9, r25	; 0x09
     ed8:	84 e0       	ldi	r24, 0x04	; 4
     eda:	8a 87       	std	Y+10, r24	; 0x0a
     edc:	df 91       	pop	r29
     ede:	cf 91       	pop	r28
     ee0:	08 95       	ret

00000ee2 <readFader>:
     ee2:	0f 93       	push	r16
     ee4:	1f 93       	push	r17
     ee6:	cf 93       	push	r28
     ee8:	df 93       	push	r29
     eea:	eb 01       	movw	r28, r22
     eec:	10 91 74 00 	lds	r17, 0x0074
     ef0:	88 81       	ld	r24, Y
     ef2:	8e 7f       	andi	r24, 0xFE	; 254
     ef4:	88 83       	st	Y, r24
     ef6:	0a e0       	ldi	r16, 0x0A	; 10
     ef8:	80 e0       	ldi	r24, 0x00	; 0
     efa:	25 db       	rcall	.-2486   	; 0x546 <readMeassure>
     efc:	f4 e0       	ldi	r31, 0x04	; 4
     efe:	96 95       	lsr	r25
     f00:	87 95       	ror	r24
     f02:	fa 95       	dec	r31
     f04:	e1 f7       	brne	.-8      	; 0xefe <readFader+0x1c>
     f06:	21 2f       	mov	r18, r17
     f08:	30 e0       	ldi	r19, 0x00	; 0
     f0a:	28 17       	cp	r18, r24
     f0c:	39 07       	cpc	r19, r25
     f0e:	11 f4       	brne	.+4      	; 0xf14 <readFader+0x32>
     f10:	0f 5f       	subi	r16, 0xFF	; 255
     f12:	01 c0       	rjmp	.+2      	; 0xf16 <readFader+0x34>
     f14:	00 e0       	ldi	r16, 0x00	; 0
     f16:	18 2f       	mov	r17, r24
     f18:	0a 30       	cpi	r16, 0x0A	; 10
     f1a:	70 f3       	brcs	.-36     	; 0xef8 <readFader+0x16>
     f1c:	20 91 74 00 	lds	r18, 0x0074
     f20:	28 17       	cp	r18, r24
     f22:	19 f0       	breq	.+6      	; 0xf2a <readFader+0x48>
     f24:	28 81       	ld	r18, Y
     f26:	21 60       	ori	r18, 0x01	; 1
     f28:	28 83       	st	Y, r18
     f2a:	10 93 74 00 	sts	0x0074, r17
     f2e:	df 91       	pop	r29
     f30:	cf 91       	pop	r28
     f32:	1f 91       	pop	r17
     f34:	0f 91       	pop	r16
     f36:	08 95       	ret

00000f38 <initFader>:
     f38:	2f 92       	push	r2
     f3a:	3f 92       	push	r3
     f3c:	4f 92       	push	r4
     f3e:	5f 92       	push	r5
     f40:	6f 92       	push	r6
     f42:	7f 92       	push	r7
     f44:	8f 92       	push	r8
     f46:	9f 92       	push	r9
     f48:	af 92       	push	r10
     f4a:	bf 92       	push	r11
     f4c:	cf 92       	push	r12
     f4e:	df 92       	push	r13
     f50:	ef 92       	push	r14
     f52:	ff 92       	push	r15
     f54:	0f 93       	push	r16
     f56:	1f 93       	push	r17
     f58:	cf 93       	push	r28
     f5a:	df 93       	push	r29
     f5c:	00 d0       	rcall	.+0      	; 0xf5e <initFader+0x26>
     f5e:	cd b7       	in	r28, 0x3d	; 61
     f60:	de b7       	in	r29, 0x3e	; 62
     f62:	0a eb       	ldi	r16, 0xBA	; 186
     f64:	10 e0       	ldi	r17, 0x00	; 0
     f66:	af ea       	ldi	r26, 0xAF	; 175
     f68:	8a 2e       	mov	r8, r26
     f6a:	a0 e0       	ldi	r26, 0x00	; 0
     f6c:	9a 2e       	mov	r9, r26
     f6e:	bd eb       	ldi	r27, 0xBD	; 189
     f70:	ab 2e       	mov	r10, r27
     f72:	b0 e0       	ldi	r27, 0x00	; 0
     f74:	bb 2e       	mov	r11, r27
     f76:	31 2c       	mov	r3, r1
     f78:	8a ef       	ldi	r24, 0xFA	; 250
     f7a:	48 2e       	mov	r4, r24
     f7c:	55 24       	eor	r5, r5
     f7e:	5a 94       	dec	r5
     f80:	61 2c       	mov	r6, r1
     f82:	71 2c       	mov	r7, r1
     f84:	c1 2c       	mov	r12, r1
     f86:	90 e4       	ldi	r25, 0x40	; 64
     f88:	d9 2e       	mov	r13, r25
     f8a:	9c e1       	ldi	r25, 0x1C	; 28
     f8c:	e9 2e       	mov	r14, r25
     f8e:	96 e4       	ldi	r25, 0x46	; 70
     f90:	f9 2e       	mov	r15, r25
     f92:	94 e0       	ldi	r25, 0x04	; 4
     f94:	22 24       	eor	r2, r2
     f96:	2a 94       	dec	r2
     f98:	19 82       	std	Y+1, r1	; 0x01
     f9a:	be 01       	movw	r22, r28
     f9c:	6f 5f       	subi	r22, 0xFF	; 255
     f9e:	7f 4f       	sbci	r23, 0xFF	; 255
     fa0:	83 2d       	mov	r24, r3
     fa2:	9a 83       	std	Y+2, r25	; 0x02
     fa4:	9e df       	rcall	.-196    	; 0xee2 <readFader>
     fa6:	9a 81       	ldd	r25, Y+2	; 0x02
     fa8:	8b 37       	cpi	r24, 0x7B	; 123
     faa:	38 f0       	brcs	.+14     	; 0xfba <initFader+0x82>
     fac:	84 56       	subi	r24, 0x64	; 100
     fae:	f4 01       	movw	r30, r8
     fb0:	80 83       	st	Z, r24
     fb2:	f8 01       	movw	r30, r16
     fb4:	80 81       	ld	r24, Z
     fb6:	8e 7f       	andi	r24, 0xFE	; 254
     fb8:	03 c0       	rjmp	.+6      	; 0xfc0 <initFader+0x88>
     fba:	f8 01       	movw	r30, r16
     fbc:	80 81       	ld	r24, Z
     fbe:	81 60       	ori	r24, 0x01	; 1
     fc0:	80 83       	st	Z, r24
     fc2:	f8 01       	movw	r30, r16
     fc4:	80 81       	ld	r24, Z
     fc6:	82 60       	ori	r24, 0x02	; 2
     fc8:	80 83       	st	Z, r24
     fca:	3a 97       	sbiw	r30, 0x0a	; 10
     fcc:	10 82       	st	Z, r1
     fce:	f4 01       	movw	r30, r8
     fd0:	46 82       	std	Z+6, r4	; 0x06
     fd2:	57 82       	std	Z+7, r5	; 0x07
     fd4:	60 86       	std	Z+8, r6	; 0x08
     fd6:	71 86       	std	Z+9, r7	; 0x09
     fd8:	c2 82       	std	Z+2, r12	; 0x02
     fda:	d3 82       	std	Z+3, r13	; 0x03
     fdc:	e4 82       	std	Z+4, r14	; 0x04
     fde:	f5 82       	std	Z+5, r15	; 0x05
     fe0:	f8 01       	movw	r30, r16
     fe2:	31 97       	sbiw	r30, 0x01	; 1
     fe4:	90 83       	st	Z, r25
     fe6:	f5 01       	movw	r30, r10
     fe8:	31 97       	sbiw	r30, 0x01	; 1
     fea:	10 82       	st	Z, r1
     fec:	f5 01       	movw	r30, r10
     fee:	32 97       	sbiw	r30, 0x02	; 2
     ff0:	20 82       	st	Z, r2
     ff2:	f5 01       	movw	r30, r10
     ff4:	10 82       	st	Z, r1
     ff6:	33 94       	inc	r3
     ff8:	01 5f       	subi	r16, 0xF1	; 241
     ffa:	1f 4f       	sbci	r17, 0xFF	; 255
     ffc:	ff e0       	ldi	r31, 0x0F	; 15
     ffe:	8f 0e       	add	r8, r31
    1000:	91 1c       	adc	r9, r1
    1002:	8f e0       	ldi	r24, 0x0F	; 15
    1004:	a8 0e       	add	r10, r24
    1006:	b1 1c       	adc	r11, r1
    1008:	e2 e0       	ldi	r30, 0x02	; 2
    100a:	3e 12       	cpse	r3, r30
    100c:	c5 cf       	rjmp	.-118    	; 0xf98 <initFader+0x60>
    100e:	10 92 76 00 	sts	0x0076, r1
    1012:	1e bc       	out	0x2e, r1	; 46
    1014:	80 e0       	ldi	r24, 0x00	; 0
    1016:	98 e4       	ldi	r25, 0x48	; 72
    1018:	9b bd       	out	0x2b, r25	; 43
    101a:	8a bd       	out	0x2a, r24	; 42
    101c:	89 b7       	in	r24, 0x39	; 57
    101e:	80 61       	ori	r24, 0x10	; 16
    1020:	89 bf       	out	0x39, r24	; 57
    1022:	78 94       	sei
    1024:	0f 90       	pop	r0
    1026:	0f 90       	pop	r0
    1028:	df 91       	pop	r29
    102a:	cf 91       	pop	r28
    102c:	1f 91       	pop	r17
    102e:	0f 91       	pop	r16
    1030:	ff 90       	pop	r15
    1032:	ef 90       	pop	r14
    1034:	df 90       	pop	r13
    1036:	cf 90       	pop	r12
    1038:	bf 90       	pop	r11
    103a:	af 90       	pop	r10
    103c:	9f 90       	pop	r9
    103e:	8f 90       	pop	r8
    1040:	7f 90       	pop	r7
    1042:	6f 90       	pop	r6
    1044:	5f 90       	pop	r5
    1046:	4f 90       	pop	r4
    1048:	3f 90       	pop	r3
    104a:	2f 90       	pop	r2
    104c:	08 95       	ret

0000104e <testFader>:
    104e:	48 2f       	mov	r20, r24
    1050:	28 2f       	mov	r18, r24
    1052:	30 e0       	ldi	r19, 0x00	; 0
    1054:	8f e0       	ldi	r24, 0x0F	; 15
    1056:	48 9f       	mul	r20, r24
    1058:	f0 01       	movw	r30, r0
    105a:	11 24       	eor	r1, r1
    105c:	e1 55       	subi	r30, 0x51	; 81
    105e:	ff 4f       	sbci	r31, 0xFF	; 255
    1060:	82 85       	ldd	r24, Z+10	; 0x0a
    1062:	88 23       	and	r24, r24
    1064:	19 f0       	breq	.+6      	; 0x106c <testFader+0x1e>
    1066:	83 85       	ldd	r24, Z+11	; 0x0b
    1068:	8f 73       	andi	r24, 0x3F	; 63
    106a:	83 87       	std	Z+11, r24	; 0x0b
    106c:	f9 01       	movw	r30, r18
    106e:	53 e0       	ldi	r21, 0x03	; 3
    1070:	ee 0f       	add	r30, r30
    1072:	ff 1f       	adc	r31, r31
    1074:	5a 95       	dec	r21
    1076:	e1 f7       	brne	.-8      	; 0x1070 <testFader+0x22>
    1078:	df 01       	movw	r26, r30
    107a:	a1 56       	subi	r26, 0x61	; 97
    107c:	bf 4f       	sbci	r27, 0xFF	; 255
    107e:	14 96       	adiw	r26, 0x04	; 4
    1080:	9c 91       	ld	r25, X
    1082:	14 97       	sbiw	r26, 0x04	; 4
    1084:	11 96       	adiw	r26, 0x01	; 1
    1086:	8c 91       	ld	r24, X
    1088:	11 97       	sbiw	r26, 0x01	; 1
    108a:	98 17       	cp	r25, r24
    108c:	d1 f1       	breq	.+116    	; 0x1102 <testFader+0xb4>
    108e:	14 96       	adiw	r26, 0x04	; 4
    1090:	9c 91       	ld	r25, X
    1092:	14 97       	sbiw	r26, 0x04	; 4
    1094:	15 96       	adiw	r26, 0x05	; 5
    1096:	8c 91       	ld	r24, X
    1098:	15 97       	sbiw	r26, 0x05	; 5
    109a:	98 13       	cpse	r25, r24
    109c:	07 c0       	rjmp	.+14     	; 0x10ac <testFader+0x5e>
    109e:	16 96       	adiw	r26, 0x06	; 6
    10a0:	8c 91       	ld	r24, X
    10a2:	16 97       	sbiw	r26, 0x06	; 6
    10a4:	8f 5f       	subi	r24, 0xFF	; 255
    10a6:	16 96       	adiw	r26, 0x06	; 6
    10a8:	8c 93       	st	X, r24
    10aa:	02 c0       	rjmp	.+4      	; 0x10b0 <testFader+0x62>
    10ac:	16 96       	adiw	r26, 0x06	; 6
    10ae:	1c 92       	st	X, r1
    10b0:	e1 56       	subi	r30, 0x61	; 97
    10b2:	ff 4f       	sbci	r31, 0xFF	; 255
    10b4:	84 81       	ldd	r24, Z+4	; 0x04
    10b6:	85 83       	std	Z+5, r24	; 0x05
    10b8:	86 81       	ldd	r24, Z+6	; 0x06
    10ba:	8a 30       	cpi	r24, 0x0A	; 10
    10bc:	a1 f5       	brne	.+104    	; 0x1126 <testFader+0xd8>
    10be:	80 81       	ld	r24, Z
    10c0:	81 83       	std	Z+1, r24	; 0x01
    10c2:	84 81       	ldd	r24, Z+4	; 0x04
    10c4:	80 83       	st	Z, r24
    10c6:	81 e0       	ldi	r24, 0x01	; 1
    10c8:	82 83       	std	Z+2, r24	; 0x02
    10ca:	13 82       	std	Z+3, r1	; 0x03
    10cc:	16 82       	std	Z+6, r1	; 0x06
    10ce:	81 e0       	ldi	r24, 0x01	; 1
    10d0:	90 e0       	ldi	r25, 0x00	; 0
    10d2:	02 c0       	rjmp	.+4      	; 0x10d8 <testFader+0x8a>
    10d4:	88 0f       	add	r24, r24
    10d6:	99 1f       	adc	r25, r25
    10d8:	4a 95       	dec	r20
    10da:	e2 f7       	brpl	.-8      	; 0x10d4 <testFader+0x86>
    10dc:	4f e0       	ldi	r20, 0x0F	; 15
    10de:	42 9f       	mul	r20, r18
    10e0:	f0 01       	movw	r30, r0
    10e2:	43 9f       	mul	r20, r19
    10e4:	f0 0d       	add	r31, r0
    10e6:	11 24       	eor	r1, r1
    10e8:	e1 55       	subi	r30, 0x51	; 81
    10ea:	ff 4f       	sbci	r31, 0xFF	; 255
    10ec:	22 85       	ldd	r18, Z+10	; 0x0a
    10ee:	21 11       	cpse	r18, r1
    10f0:	1c c0       	rjmp	.+56     	; 0x112a <testFader+0xdc>
    10f2:	23 85       	ldd	r18, Z+11	; 0x0b
    10f4:	26 ff       	sbrs	r18, 6
    10f6:	02 c0       	rjmp	.+4      	; 0x10fc <testFader+0xae>
    10f8:	20 68       	ori	r18, 0x80	; 128
    10fa:	01 c0       	rjmp	.+2      	; 0x10fe <testFader+0xb0>
    10fc:	20 64       	ori	r18, 0x40	; 64
    10fe:	23 87       	std	Z+11, r18	; 0x0b
    1100:	08 95       	ret
    1102:	14 96       	adiw	r26, 0x04	; 4
    1104:	8c 91       	ld	r24, X
    1106:	81 11       	cpse	r24, r1
    1108:	08 c0       	rjmp	.+16     	; 0x111a <testFader+0xcc>
    110a:	81 e0       	ldi	r24, 0x01	; 1
    110c:	90 e0       	ldi	r25, 0x00	; 0
    110e:	02 c0       	rjmp	.+4      	; 0x1114 <testFader+0xc6>
    1110:	88 0f       	add	r24, r24
    1112:	99 1f       	adc	r25, r25
    1114:	4a 95       	dec	r20
    1116:	e2 f7       	brpl	.-8      	; 0x1110 <testFader+0xc2>
    1118:	02 c0       	rjmp	.+4      	; 0x111e <testFader+0xd0>
    111a:	80 e0       	ldi	r24, 0x00	; 0
    111c:	90 e0       	ldi	r25, 0x00	; 0
    111e:	e1 56       	subi	r30, 0x61	; 97
    1120:	ff 4f       	sbci	r31, 0xFF	; 255
    1122:	16 82       	std	Z+6, r1	; 0x06
    1124:	08 95       	ret
    1126:	80 e0       	ldi	r24, 0x00	; 0
    1128:	90 e0       	ldi	r25, 0x00	; 0
    112a:	08 95       	ret

0000112c <init>:
    112c:	ba 9a       	sbi	0x17, 2	; 23
    112e:	c2 9a       	sbi	0x18, 2	; 24
    1130:	b8 9a       	sbi	0x17, 0	; 23
    1132:	c0 9a       	sbi	0x18, 0	; 24
    1134:	08 95       	ret

00001136 <minisend>:
    1136:	08 95       	ret

00001138 <main>:
    1138:	cf 93       	push	r28
    113a:	df 93       	push	r29
    113c:	00 d0       	rcall	.+0      	; 0x113e <main+0x6>
    113e:	00 d0       	rcall	.+0      	; 0x1140 <main+0x8>
    1140:	1f 92       	push	r1
    1142:	cd b7       	in	r28, 0x3d	; 61
    1144:	de b7       	in	r29, 0x3e	; 62
    1146:	fe d8       	rcall	.-3588   	; 0x344 <initSPI>
    1148:	f1 d7       	rcall	.+4066   	; 0x212c <__data_load_end+0x858>
    114a:	f0 df       	rcall	.-32     	; 0x112c <init>
    114c:	ca d8       	rcall	.-3692   	; 0x2e2 <init_shift>
    114e:	f4 de       	rcall	.-536    	; 0xf38 <initFader>
    1150:	2f ef       	ldi	r18, 0xFF	; 255
    1152:	8f ef       	ldi	r24, 0xFF	; 255
    1154:	9c e2       	ldi	r25, 0x2C	; 44
    1156:	21 50       	subi	r18, 0x01	; 1
    1158:	80 40       	sbci	r24, 0x00	; 0
    115a:	90 40       	sbci	r25, 0x00	; 0
    115c:	e1 f7       	brne	.-8      	; 0x1156 <main+0x1e>
    115e:	00 c0       	rjmp	.+0      	; 0x1160 <main+0x28>
    1160:	00 00       	nop
    1162:	88 e4       	ldi	r24, 0x48	; 72
    1164:	80 93 77 00 	sts	0x0077, r24
    1168:	81 e4       	ldi	r24, 0x41	; 65
    116a:	80 93 78 00 	sts	0x0078, r24
    116e:	8c e4       	ldi	r24, 0x4C	; 76
    1170:	80 93 79 00 	sts	0x0079, r24
    1174:	80 93 7a 00 	sts	0x007A, r24
    1178:	8f e4       	ldi	r24, 0x4F	; 79
    117a:	80 93 7b 00 	sts	0x007B, r24
    117e:	10 92 7c 00 	sts	0x007C, r1
    1182:	85 e0       	ldi	r24, 0x05	; 5
    1184:	80 93 68 00 	sts	0x0068, r24
    1188:	10 92 69 00 	sts	0x0069, r1
    118c:	d9 d7       	rcall	.+4018   	; 0x2140 <__data_load_end+0x86c>
    118e:	ef ef       	ldi	r30, 0xFF	; 255
    1190:	ff ef       	ldi	r31, 0xFF	; 255
    1192:	2c e2       	ldi	r18, 0x2C	; 44
    1194:	e1 50       	subi	r30, 0x01	; 1
    1196:	f0 40       	sbci	r31, 0x00	; 0
    1198:	20 40       	sbci	r18, 0x00	; 0
    119a:	e1 f7       	brne	.-8      	; 0x1194 <main+0x5c>
    119c:	00 c0       	rjmp	.+0      	; 0x119e <main+0x66>
    119e:	00 00       	nop
    11a0:	8f ef       	ldi	r24, 0xFF	; 255
    11a2:	9f ef       	ldi	r25, 0xFF	; 255
    11a4:	ec e2       	ldi	r30, 0x2C	; 44
    11a6:	81 50       	subi	r24, 0x01	; 1
    11a8:	90 40       	sbci	r25, 0x00	; 0
    11aa:	e0 40       	sbci	r30, 0x00	; 0
    11ac:	e1 f7       	brne	.-8      	; 0x11a6 <main+0x6e>
    11ae:	00 c0       	rjmp	.+0      	; 0x11b0 <main+0x78>
    11b0:	00 00       	nop
    11b2:	ef d8       	rcall	.-3618   	; 0x392 <startMeassure>
    11b4:	ff ef       	ldi	r31, 0xFF	; 255
    11b6:	2f ef       	ldi	r18, 0xFF	; 255
    11b8:	8c e2       	ldi	r24, 0x2C	; 44
    11ba:	f1 50       	subi	r31, 0x01	; 1
    11bc:	20 40       	sbci	r18, 0x00	; 0
    11be:	80 40       	sbci	r24, 0x00	; 0
    11c0:	e1 f7       	brne	.-8      	; 0x11ba <main+0x82>
    11c2:	00 c0       	rjmp	.+0      	; 0x11c4 <main+0x8c>
    11c4:	00 00       	nop
    11c6:	b1 2c       	mov	r11, r1
    11c8:	a1 2c       	mov	r10, r1
    11ca:	c1 2c       	mov	r12, r1
    11cc:	d1 2c       	mov	r13, r1
    11ce:	80 91 66 00 	lds	r24, 0x0066
    11d2:	88 23       	and	r24, r24
    11d4:	09 f4       	brne	.+2      	; 0x11d8 <main+0xa0>
    11d6:	4b c0       	rjmp	.+150    	; 0x126e <main+0x136>
    11d8:	c0 98       	cbi	0x18, 0	; 24
    11da:	80 91 8b 00 	lds	r24, 0x008B
    11de:	8d 36       	cpi	r24, 0x6D	; 109
    11e0:	19 f0       	breq	.+6      	; 0x11e8 <main+0xb0>
    11e2:	83 37       	cpi	r24, 0x73	; 115
    11e4:	c9 f1       	breq	.+114    	; 0x1258 <main+0x120>
    11e6:	3f c0       	rjmp	.+126    	; 0x1266 <main+0x12e>
    11e8:	0c e8       	ldi	r16, 0x8C	; 140
    11ea:	10 e0       	ldi	r17, 0x00	; 0
    11ec:	01 15       	cp	r16, r1
    11ee:	11 05       	cpc	r17, r1
    11f0:	c9 f1       	breq	.+114    	; 0x1264 <main+0x12c>
    11f2:	6a e3       	ldi	r22, 0x3A	; 58
    11f4:	70 e0       	ldi	r23, 0x00	; 0
    11f6:	c8 01       	movw	r24, r16
    11f8:	03 d3       	rcall	.+1542   	; 0x1800 <strchr>
    11fa:	7c 01       	movw	r14, r24
    11fc:	00 97       	sbiw	r24, 0x00	; 0
    11fe:	91 f1       	breq	.+100    	; 0x1264 <main+0x12c>
    1200:	ac 01       	movw	r20, r24
    1202:	40 1b       	sub	r20, r16
    1204:	51 0b       	sbc	r21, r17
    1206:	b8 01       	movw	r22, r16
    1208:	ce 01       	movw	r24, r28
    120a:	01 96       	adiw	r24, 0x01	; 1
    120c:	04 d3       	rcall	.+1544   	; 0x1816 <strncpy>
    120e:	1d 82       	std	Y+5, r1	; 0x05
    1210:	ce 01       	movw	r24, r28
    1212:	01 96       	adiw	r24, 0x01	; 1
    1214:	cd d2       	rcall	.+1434   	; 0x17b0 <atoi>
    1216:	a8 2e       	mov	r10, r24
    1218:	6b e3       	ldi	r22, 0x3B	; 59
    121a:	70 e0       	ldi	r23, 0x00	; 0
    121c:	c7 01       	movw	r24, r14
    121e:	f0 d2       	rcall	.+1504   	; 0x1800 <strchr>
    1220:	8c 01       	movw	r16, r24
    1222:	b7 01       	movw	r22, r14
    1224:	6f 5f       	subi	r22, 0xFF	; 255
    1226:	7f 4f       	sbci	r23, 0xFF	; 255
    1228:	00 97       	sbiw	r24, 0x00	; 0
    122a:	31 f4       	brne	.+12     	; 0x1238 <main+0x100>
    122c:	40 91 66 00 	lds	r20, 0x0066
    1230:	50 e0       	ldi	r21, 0x00	; 0
    1232:	45 57       	subi	r20, 0x75	; 117
    1234:	5f 4f       	sbci	r21, 0xFF	; 255
    1236:	01 c0       	rjmp	.+2      	; 0x123a <main+0x102>
    1238:	ac 01       	movw	r20, r24
    123a:	4e 19       	sub	r20, r14
    123c:	5f 09       	sbc	r21, r15
    123e:	41 50       	subi	r20, 0x01	; 1
    1240:	51 09       	sbc	r21, r1
    1242:	ce 01       	movw	r24, r28
    1244:	01 96       	adiw	r24, 0x01	; 1
    1246:	e7 d2       	rcall	.+1486   	; 0x1816 <strncpy>
    1248:	1d 82       	std	Y+5, r1	; 0x05
    124a:	ce 01       	movw	r24, r28
    124c:	01 96       	adiw	r24, 0x01	; 1
    124e:	b0 d2       	rcall	.+1376   	; 0x17b0 <atoi>
    1250:	68 2f       	mov	r22, r24
    1252:	8a 2d       	mov	r24, r10
    1254:	c5 dd       	rcall	.-1142   	; 0xde0 <gotoPosition>
    1256:	ca cf       	rjmp	.-108    	; 0x11ec <main+0xb4>
    1258:	80 91 8c 00 	lds	r24, 0x008C
    125c:	aa 24       	eor	r10, r10
    125e:	a3 94       	inc	r10
    1260:	81 33       	cpi	r24, 0x31	; 49
    1262:	09 f0       	breq	.+2      	; 0x1266 <main+0x12e>
    1264:	a1 2c       	mov	r10, r1
    1266:	10 92 8b 00 	sts	0x008B, r1
    126a:	10 92 66 00 	sts	0x0066, r1
    126e:	93 e0       	ldi	r25, 0x03	; 3
    1270:	c9 16       	cp	r12, r25
    1272:	d1 04       	cpc	r13, r1
    1274:	49 f4       	brne	.+18     	; 0x1288 <main+0x150>
    1276:	80 91 75 00 	lds	r24, 0x0075
    127a:	88 23       	and	r24, r24
    127c:	21 f0       	breq	.+8      	; 0x1286 <main+0x14e>
    127e:	82 e0       	ldi	r24, 0x02	; 2
    1280:	aa d9       	rcall	.-3244   	; 0x5d6 <setTimer>
    1282:	10 92 75 00 	sts	0x0075, r1
    1286:	ce db       	rcall	.-2148   	; 0xa24 <workFader>
    1288:	19 82       	std	Y+1, r1	; 0x01
    128a:	1a 82       	std	Y+2, r1	; 0x02
    128c:	1b 82       	std	Y+3, r1	; 0x03
    128e:	1c 82       	std	Y+4, r1	; 0x04
    1290:	00 e0       	ldi	r16, 0x00	; 0
    1292:	10 e0       	ldi	r17, 0x00	; 0
    1294:	78 01       	movw	r14, r16
    1296:	83 e0       	ldi	r24, 0x03	; 3
    1298:	ee 0c       	add	r14, r14
    129a:	ff 1c       	adc	r15, r15
    129c:	8a 95       	dec	r24
    129e:	e1 f7       	brne	.-8      	; 0x1298 <main+0x160>
    12a0:	f7 01       	movw	r30, r14
    12a2:	e1 56       	subi	r30, 0x61	; 97
    12a4:	ff 4f       	sbci	r31, 0xFF	; 255
    12a6:	4f 01       	movw	r8, r30
    12a8:	83 81       	ldd	r24, Z+3	; 0x03
    12aa:	88 23       	and	r24, r24
    12ac:	31 f0       	breq	.+12     	; 0x12ba <main+0x182>
    12ae:	80 2f       	mov	r24, r16
    12b0:	ce de       	rcall	.-612    	; 0x104e <testFader>
    12b2:	c8 2a       	or	r12, r24
    12b4:	d9 2a       	or	r13, r25
    12b6:	f4 01       	movw	r30, r8
    12b8:	13 82       	std	Z+3, r1	; 0x03
    12ba:	f7 01       	movw	r30, r14
    12bc:	e1 56       	subi	r30, 0x61	; 97
    12be:	ff 4f       	sbci	r31, 0xFF	; 255
    12c0:	82 81       	ldd	r24, Z+2	; 0x02
    12c2:	81 30       	cpi	r24, 0x01	; 1
    12c4:	09 f0       	breq	.+2      	; 0x12c8 <main+0x190>
    12c6:	43 c0       	rjmp	.+134    	; 0x134e <main+0x216>
    12c8:	aa 20       	and	r10, r10
    12ca:	09 f4       	brne	.+2      	; 0x12ce <main+0x196>
    12cc:	40 c0       	rjmp	.+128    	; 0x134e <main+0x216>
    12ce:	80 91 68 00 	lds	r24, 0x0068
    12d2:	81 11       	cpse	r24, r1
    12d4:	3c c0       	rjmp	.+120    	; 0x134e <main+0x216>
    12d6:	80 91 77 00 	lds	r24, 0x0077
    12da:	88 23       	and	r24, r24
    12dc:	29 f0       	breq	.+10     	; 0x12e8 <main+0x1b0>
    12de:	61 e6       	ldi	r22, 0x61	; 97
    12e0:	70 e0       	ldi	r23, 0x00	; 0
    12e2:	87 e7       	ldi	r24, 0x77	; 119
    12e4:	90 e0       	ldi	r25, 0x00	; 0
    12e6:	81 d2       	rcall	.+1282   	; 0x17ea <strcat>
    12e8:	4a e0       	ldi	r20, 0x0A	; 10
    12ea:	50 e0       	ldi	r21, 0x00	; 0
    12ec:	be 01       	movw	r22, r28
    12ee:	6f 5f       	subi	r22, 0xFF	; 255
    12f0:	7f 4f       	sbci	r23, 0xFF	; 255
    12f2:	c8 01       	movw	r24, r16
    12f4:	9f d2       	rcall	.+1342   	; 0x1834 <itoa>
    12f6:	be 01       	movw	r22, r28
    12f8:	6f 5f       	subi	r22, 0xFF	; 255
    12fa:	7f 4f       	sbci	r23, 0xFF	; 255
    12fc:	87 e7       	ldi	r24, 0x77	; 119
    12fe:	90 e0       	ldi	r25, 0x00	; 0
    1300:	74 d2       	rcall	.+1256   	; 0x17ea <strcat>
    1302:	63 e6       	ldi	r22, 0x63	; 99
    1304:	70 e0       	ldi	r23, 0x00	; 0
    1306:	87 e7       	ldi	r24, 0x77	; 119
    1308:	90 e0       	ldi	r25, 0x00	; 0
    130a:	6f d2       	rcall	.+1246   	; 0x17ea <strcat>
    130c:	c7 01       	movw	r24, r14
    130e:	81 56       	subi	r24, 0x61	; 97
    1310:	9f 4f       	sbci	r25, 0xFF	; 255
    1312:	7c 01       	movw	r14, r24
    1314:	fc 01       	movw	r30, r24
    1316:	80 81       	ld	r24, Z
    1318:	4a e0       	ldi	r20, 0x0A	; 10
    131a:	50 e0       	ldi	r21, 0x00	; 0
    131c:	be 01       	movw	r22, r28
    131e:	6f 5f       	subi	r22, 0xFF	; 255
    1320:	7f 4f       	sbci	r23, 0xFF	; 255
    1322:	90 e0       	ldi	r25, 0x00	; 0
    1324:	87 d2       	rcall	.+1294   	; 0x1834 <itoa>
    1326:	be 01       	movw	r22, r28
    1328:	6f 5f       	subi	r22, 0xFF	; 255
    132a:	7f 4f       	sbci	r23, 0xFF	; 255
    132c:	87 e7       	ldi	r24, 0x77	; 119
    132e:	90 e0       	ldi	r25, 0x00	; 0
    1330:	5c d2       	rcall	.+1208   	; 0x17ea <strcat>
    1332:	e7 e7       	ldi	r30, 0x77	; 119
    1334:	f0 e0       	ldi	r31, 0x00	; 0
    1336:	01 90       	ld	r0, Z+
    1338:	00 20       	and	r0, r0
    133a:	e9 f7       	brne	.-6      	; 0x1336 <main+0x1fe>
    133c:	31 97       	sbiw	r30, 0x01	; 1
    133e:	e7 57       	subi	r30, 0x77	; 119
    1340:	f0 40       	sbci	r31, 0x00	; 0
    1342:	e0 93 68 00 	sts	0x0068, r30
    1346:	f7 01       	movw	r30, r14
    1348:	12 82       	std	Z+2, r1	; 0x02
    134a:	bb 24       	eor	r11, r11
    134c:	b3 94       	inc	r11
    134e:	0f 5f       	subi	r16, 0xFF	; 255
    1350:	1f 4f       	sbci	r17, 0xFF	; 255
    1352:	02 30       	cpi	r16, 0x02	; 2
    1354:	11 05       	cpc	r17, r1
    1356:	09 f0       	breq	.+2      	; 0x135a <main+0x222>
    1358:	9d cf       	rjmp	.-198    	; 0x1294 <main+0x15c>
    135a:	b1 10       	cpse	r11, r1
    135c:	02 c0       	rjmp	.+4      	; 0x1362 <main+0x22a>
    135e:	b1 2c       	mov	r11, r1
    1360:	36 cf       	rjmp	.-404    	; 0x11ce <main+0x96>
    1362:	aa 20       	and	r10, r10
    1364:	09 f4       	brne	.+2      	; 0x1368 <main+0x230>
    1366:	33 cf       	rjmp	.-410    	; 0x11ce <main+0x96>
    1368:	eb d6       	rcall	.+3542   	; 0x2140 <__data_load_end+0x86c>
    136a:	80 91 68 00 	lds	r24, 0x0068
    136e:	81 11       	cpse	r24, r1
    1370:	fc cf       	rjmp	.-8      	; 0x136a <main+0x232>
    1372:	f5 cf       	rjmp	.-22     	; 0x135e <main+0x226>

00001374 <__udivmodqi4>:
    1374:	99 1b       	sub	r25, r25
    1376:	79 e0       	ldi	r23, 0x09	; 9
    1378:	04 c0       	rjmp	.+8      	; 0x1382 <__udivmodqi4_ep>

0000137a <__udivmodqi4_loop>:
    137a:	99 1f       	adc	r25, r25
    137c:	96 17       	cp	r25, r22
    137e:	08 f0       	brcs	.+2      	; 0x1382 <__udivmodqi4_ep>
    1380:	96 1b       	sub	r25, r22

00001382 <__udivmodqi4_ep>:
    1382:	88 1f       	adc	r24, r24
    1384:	7a 95       	dec	r23
    1386:	c9 f7       	brne	.-14     	; 0x137a <__udivmodqi4_loop>
    1388:	80 95       	com	r24
    138a:	08 95       	ret

0000138c <__subsf3>:
    138c:	50 58       	subi	r21, 0x80	; 128

0000138e <__addsf3>:
    138e:	bb 27       	eor	r27, r27
    1390:	aa 27       	eor	r26, r26
    1392:	0e d0       	rcall	.+28     	; 0x13b0 <__addsf3x>
    1394:	70 c1       	rjmp	.+736    	; 0x1676 <__fp_round>
    1396:	61 d1       	rcall	.+706    	; 0x165a <__fp_pscA>
    1398:	30 f0       	brcs	.+12     	; 0x13a6 <__addsf3+0x18>
    139a:	66 d1       	rcall	.+716    	; 0x1668 <__fp_pscB>
    139c:	20 f0       	brcs	.+8      	; 0x13a6 <__addsf3+0x18>
    139e:	31 f4       	brne	.+12     	; 0x13ac <__addsf3+0x1e>
    13a0:	9f 3f       	cpi	r25, 0xFF	; 255
    13a2:	11 f4       	brne	.+4      	; 0x13a8 <__addsf3+0x1a>
    13a4:	1e f4       	brtc	.+6      	; 0x13ac <__addsf3+0x1e>
    13a6:	56 c1       	rjmp	.+684    	; 0x1654 <__fp_nan>
    13a8:	0e f4       	brtc	.+2      	; 0x13ac <__addsf3+0x1e>
    13aa:	e0 95       	com	r30
    13ac:	e7 fb       	bst	r30, 7
    13ae:	4c c1       	rjmp	.+664    	; 0x1648 <__fp_inf>

000013b0 <__addsf3x>:
    13b0:	e9 2f       	mov	r30, r25
    13b2:	72 d1       	rcall	.+740    	; 0x1698 <__fp_split3>
    13b4:	80 f3       	brcs	.-32     	; 0x1396 <__addsf3+0x8>
    13b6:	ba 17       	cp	r27, r26
    13b8:	62 07       	cpc	r22, r18
    13ba:	73 07       	cpc	r23, r19
    13bc:	84 07       	cpc	r24, r20
    13be:	95 07       	cpc	r25, r21
    13c0:	18 f0       	brcs	.+6      	; 0x13c8 <__addsf3x+0x18>
    13c2:	71 f4       	brne	.+28     	; 0x13e0 <__addsf3x+0x30>
    13c4:	9e f5       	brtc	.+102    	; 0x142c <__addsf3x+0x7c>
    13c6:	8a c1       	rjmp	.+788    	; 0x16dc <__fp_zero>
    13c8:	0e f4       	brtc	.+2      	; 0x13cc <__addsf3x+0x1c>
    13ca:	e0 95       	com	r30
    13cc:	0b 2e       	mov	r0, r27
    13ce:	ba 2f       	mov	r27, r26
    13d0:	a0 2d       	mov	r26, r0
    13d2:	0b 01       	movw	r0, r22
    13d4:	b9 01       	movw	r22, r18
    13d6:	90 01       	movw	r18, r0
    13d8:	0c 01       	movw	r0, r24
    13da:	ca 01       	movw	r24, r20
    13dc:	a0 01       	movw	r20, r0
    13de:	11 24       	eor	r1, r1
    13e0:	ff 27       	eor	r31, r31
    13e2:	59 1b       	sub	r21, r25
    13e4:	99 f0       	breq	.+38     	; 0x140c <__addsf3x+0x5c>
    13e6:	59 3f       	cpi	r21, 0xF9	; 249
    13e8:	50 f4       	brcc	.+20     	; 0x13fe <__addsf3x+0x4e>
    13ea:	50 3e       	cpi	r21, 0xE0	; 224
    13ec:	68 f1       	brcs	.+90     	; 0x1448 <__addsf3x+0x98>
    13ee:	1a 16       	cp	r1, r26
    13f0:	f0 40       	sbci	r31, 0x00	; 0
    13f2:	a2 2f       	mov	r26, r18
    13f4:	23 2f       	mov	r18, r19
    13f6:	34 2f       	mov	r19, r20
    13f8:	44 27       	eor	r20, r20
    13fa:	58 5f       	subi	r21, 0xF8	; 248
    13fc:	f3 cf       	rjmp	.-26     	; 0x13e4 <__addsf3x+0x34>
    13fe:	46 95       	lsr	r20
    1400:	37 95       	ror	r19
    1402:	27 95       	ror	r18
    1404:	a7 95       	ror	r26
    1406:	f0 40       	sbci	r31, 0x00	; 0
    1408:	53 95       	inc	r21
    140a:	c9 f7       	brne	.-14     	; 0x13fe <__addsf3x+0x4e>
    140c:	7e f4       	brtc	.+30     	; 0x142c <__addsf3x+0x7c>
    140e:	1f 16       	cp	r1, r31
    1410:	ba 0b       	sbc	r27, r26
    1412:	62 0b       	sbc	r22, r18
    1414:	73 0b       	sbc	r23, r19
    1416:	84 0b       	sbc	r24, r20
    1418:	ba f0       	brmi	.+46     	; 0x1448 <__addsf3x+0x98>
    141a:	91 50       	subi	r25, 0x01	; 1
    141c:	a1 f0       	breq	.+40     	; 0x1446 <__addsf3x+0x96>
    141e:	ff 0f       	add	r31, r31
    1420:	bb 1f       	adc	r27, r27
    1422:	66 1f       	adc	r22, r22
    1424:	77 1f       	adc	r23, r23
    1426:	88 1f       	adc	r24, r24
    1428:	c2 f7       	brpl	.-16     	; 0x141a <__addsf3x+0x6a>
    142a:	0e c0       	rjmp	.+28     	; 0x1448 <__addsf3x+0x98>
    142c:	ba 0f       	add	r27, r26
    142e:	62 1f       	adc	r22, r18
    1430:	73 1f       	adc	r23, r19
    1432:	84 1f       	adc	r24, r20
    1434:	48 f4       	brcc	.+18     	; 0x1448 <__addsf3x+0x98>
    1436:	87 95       	ror	r24
    1438:	77 95       	ror	r23
    143a:	67 95       	ror	r22
    143c:	b7 95       	ror	r27
    143e:	f7 95       	ror	r31
    1440:	9e 3f       	cpi	r25, 0xFE	; 254
    1442:	08 f0       	brcs	.+2      	; 0x1446 <__addsf3x+0x96>
    1444:	b3 cf       	rjmp	.-154    	; 0x13ac <__addsf3+0x1e>
    1446:	93 95       	inc	r25
    1448:	88 0f       	add	r24, r24
    144a:	08 f0       	brcs	.+2      	; 0x144e <__addsf3x+0x9e>
    144c:	99 27       	eor	r25, r25
    144e:	ee 0f       	add	r30, r30
    1450:	97 95       	ror	r25
    1452:	87 95       	ror	r24
    1454:	08 95       	ret

00001456 <__cmpsf2>:
    1456:	d4 d0       	rcall	.+424    	; 0x1600 <__fp_cmp>
    1458:	08 f4       	brcc	.+2      	; 0x145c <__cmpsf2+0x6>
    145a:	81 e0       	ldi	r24, 0x01	; 1
    145c:	08 95       	ret

0000145e <__divsf3>:
    145e:	0c d0       	rcall	.+24     	; 0x1478 <__divsf3x>
    1460:	0a c1       	rjmp	.+532    	; 0x1676 <__fp_round>
    1462:	02 d1       	rcall	.+516    	; 0x1668 <__fp_pscB>
    1464:	40 f0       	brcs	.+16     	; 0x1476 <__divsf3+0x18>
    1466:	f9 d0       	rcall	.+498    	; 0x165a <__fp_pscA>
    1468:	30 f0       	brcs	.+12     	; 0x1476 <__divsf3+0x18>
    146a:	21 f4       	brne	.+8      	; 0x1474 <__divsf3+0x16>
    146c:	5f 3f       	cpi	r21, 0xFF	; 255
    146e:	19 f0       	breq	.+6      	; 0x1476 <__divsf3+0x18>
    1470:	eb c0       	rjmp	.+470    	; 0x1648 <__fp_inf>
    1472:	51 11       	cpse	r21, r1
    1474:	34 c1       	rjmp	.+616    	; 0x16de <__fp_szero>
    1476:	ee c0       	rjmp	.+476    	; 0x1654 <__fp_nan>

00001478 <__divsf3x>:
    1478:	0f d1       	rcall	.+542    	; 0x1698 <__fp_split3>
    147a:	98 f3       	brcs	.-26     	; 0x1462 <__divsf3+0x4>

0000147c <__divsf3_pse>:
    147c:	99 23       	and	r25, r25
    147e:	c9 f3       	breq	.-14     	; 0x1472 <__divsf3+0x14>
    1480:	55 23       	and	r21, r21
    1482:	b1 f3       	breq	.-20     	; 0x1470 <__divsf3+0x12>
    1484:	95 1b       	sub	r25, r21
    1486:	55 0b       	sbc	r21, r21
    1488:	bb 27       	eor	r27, r27
    148a:	aa 27       	eor	r26, r26
    148c:	62 17       	cp	r22, r18
    148e:	73 07       	cpc	r23, r19
    1490:	84 07       	cpc	r24, r20
    1492:	38 f0       	brcs	.+14     	; 0x14a2 <__divsf3_pse+0x26>
    1494:	9f 5f       	subi	r25, 0xFF	; 255
    1496:	5f 4f       	sbci	r21, 0xFF	; 255
    1498:	22 0f       	add	r18, r18
    149a:	33 1f       	adc	r19, r19
    149c:	44 1f       	adc	r20, r20
    149e:	aa 1f       	adc	r26, r26
    14a0:	a9 f3       	breq	.-22     	; 0x148c <__divsf3_pse+0x10>
    14a2:	33 d0       	rcall	.+102    	; 0x150a <__divsf3_pse+0x8e>
    14a4:	0e 2e       	mov	r0, r30
    14a6:	3a f0       	brmi	.+14     	; 0x14b6 <__divsf3_pse+0x3a>
    14a8:	e0 e8       	ldi	r30, 0x80	; 128
    14aa:	30 d0       	rcall	.+96     	; 0x150c <__divsf3_pse+0x90>
    14ac:	91 50       	subi	r25, 0x01	; 1
    14ae:	50 40       	sbci	r21, 0x00	; 0
    14b0:	e6 95       	lsr	r30
    14b2:	00 1c       	adc	r0, r0
    14b4:	ca f7       	brpl	.-14     	; 0x14a8 <__divsf3_pse+0x2c>
    14b6:	29 d0       	rcall	.+82     	; 0x150a <__divsf3_pse+0x8e>
    14b8:	fe 2f       	mov	r31, r30
    14ba:	27 d0       	rcall	.+78     	; 0x150a <__divsf3_pse+0x8e>
    14bc:	66 0f       	add	r22, r22
    14be:	77 1f       	adc	r23, r23
    14c0:	88 1f       	adc	r24, r24
    14c2:	bb 1f       	adc	r27, r27
    14c4:	26 17       	cp	r18, r22
    14c6:	37 07       	cpc	r19, r23
    14c8:	48 07       	cpc	r20, r24
    14ca:	ab 07       	cpc	r26, r27
    14cc:	b0 e8       	ldi	r27, 0x80	; 128
    14ce:	09 f0       	breq	.+2      	; 0x14d2 <__divsf3_pse+0x56>
    14d0:	bb 0b       	sbc	r27, r27
    14d2:	80 2d       	mov	r24, r0
    14d4:	bf 01       	movw	r22, r30
    14d6:	ff 27       	eor	r31, r31
    14d8:	93 58       	subi	r25, 0x83	; 131
    14da:	5f 4f       	sbci	r21, 0xFF	; 255
    14dc:	2a f0       	brmi	.+10     	; 0x14e8 <__divsf3_pse+0x6c>
    14de:	9e 3f       	cpi	r25, 0xFE	; 254
    14e0:	51 05       	cpc	r21, r1
    14e2:	68 f0       	brcs	.+26     	; 0x14fe <__divsf3_pse+0x82>
    14e4:	b1 c0       	rjmp	.+354    	; 0x1648 <__fp_inf>
    14e6:	fb c0       	rjmp	.+502    	; 0x16de <__fp_szero>
    14e8:	5f 3f       	cpi	r21, 0xFF	; 255
    14ea:	ec f3       	brlt	.-6      	; 0x14e6 <__divsf3_pse+0x6a>
    14ec:	98 3e       	cpi	r25, 0xE8	; 232
    14ee:	dc f3       	brlt	.-10     	; 0x14e6 <__divsf3_pse+0x6a>
    14f0:	86 95       	lsr	r24
    14f2:	77 95       	ror	r23
    14f4:	67 95       	ror	r22
    14f6:	b7 95       	ror	r27
    14f8:	f7 95       	ror	r31
    14fa:	9f 5f       	subi	r25, 0xFF	; 255
    14fc:	c9 f7       	brne	.-14     	; 0x14f0 <__divsf3_pse+0x74>
    14fe:	88 0f       	add	r24, r24
    1500:	91 1d       	adc	r25, r1
    1502:	96 95       	lsr	r25
    1504:	87 95       	ror	r24
    1506:	97 f9       	bld	r25, 7
    1508:	08 95       	ret
    150a:	e1 e0       	ldi	r30, 0x01	; 1
    150c:	66 0f       	add	r22, r22
    150e:	77 1f       	adc	r23, r23
    1510:	88 1f       	adc	r24, r24
    1512:	bb 1f       	adc	r27, r27
    1514:	62 17       	cp	r22, r18
    1516:	73 07       	cpc	r23, r19
    1518:	84 07       	cpc	r24, r20
    151a:	ba 07       	cpc	r27, r26
    151c:	20 f0       	brcs	.+8      	; 0x1526 <__divsf3_pse+0xaa>
    151e:	62 1b       	sub	r22, r18
    1520:	73 0b       	sbc	r23, r19
    1522:	84 0b       	sbc	r24, r20
    1524:	ba 0b       	sbc	r27, r26
    1526:	ee 1f       	adc	r30, r30
    1528:	88 f7       	brcc	.-30     	; 0x150c <__divsf3_pse+0x90>
    152a:	e0 95       	com	r30
    152c:	08 95       	ret

0000152e <__fixunssfsi>:
    152e:	bc d0       	rcall	.+376    	; 0x16a8 <__fp_splitA>
    1530:	88 f0       	brcs	.+34     	; 0x1554 <__fixunssfsi+0x26>
    1532:	9f 57       	subi	r25, 0x7F	; 127
    1534:	90 f0       	brcs	.+36     	; 0x155a <__fixunssfsi+0x2c>
    1536:	b9 2f       	mov	r27, r25
    1538:	99 27       	eor	r25, r25
    153a:	b7 51       	subi	r27, 0x17	; 23
    153c:	a0 f0       	brcs	.+40     	; 0x1566 <__fixunssfsi+0x38>
    153e:	d1 f0       	breq	.+52     	; 0x1574 <__fixunssfsi+0x46>
    1540:	66 0f       	add	r22, r22
    1542:	77 1f       	adc	r23, r23
    1544:	88 1f       	adc	r24, r24
    1546:	99 1f       	adc	r25, r25
    1548:	1a f0       	brmi	.+6      	; 0x1550 <__fixunssfsi+0x22>
    154a:	ba 95       	dec	r27
    154c:	c9 f7       	brne	.-14     	; 0x1540 <__fixunssfsi+0x12>
    154e:	12 c0       	rjmp	.+36     	; 0x1574 <__fixunssfsi+0x46>
    1550:	b1 30       	cpi	r27, 0x01	; 1
    1552:	81 f0       	breq	.+32     	; 0x1574 <__fixunssfsi+0x46>
    1554:	c3 d0       	rcall	.+390    	; 0x16dc <__fp_zero>
    1556:	b1 e0       	ldi	r27, 0x01	; 1
    1558:	08 95       	ret
    155a:	c0 c0       	rjmp	.+384    	; 0x16dc <__fp_zero>
    155c:	67 2f       	mov	r22, r23
    155e:	78 2f       	mov	r23, r24
    1560:	88 27       	eor	r24, r24
    1562:	b8 5f       	subi	r27, 0xF8	; 248
    1564:	39 f0       	breq	.+14     	; 0x1574 <__fixunssfsi+0x46>
    1566:	b9 3f       	cpi	r27, 0xF9	; 249
    1568:	cc f3       	brlt	.-14     	; 0x155c <__fixunssfsi+0x2e>
    156a:	86 95       	lsr	r24
    156c:	77 95       	ror	r23
    156e:	67 95       	ror	r22
    1570:	b3 95       	inc	r27
    1572:	d9 f7       	brne	.-10     	; 0x156a <__fixunssfsi+0x3c>
    1574:	3e f4       	brtc	.+14     	; 0x1584 <__fixunssfsi+0x56>
    1576:	90 95       	com	r25
    1578:	80 95       	com	r24
    157a:	70 95       	com	r23
    157c:	61 95       	neg	r22
    157e:	7f 4f       	sbci	r23, 0xFF	; 255
    1580:	8f 4f       	sbci	r24, 0xFF	; 255
    1582:	9f 4f       	sbci	r25, 0xFF	; 255
    1584:	08 95       	ret

00001586 <__floatunsisf>:
    1586:	e8 94       	clt
    1588:	09 c0       	rjmp	.+18     	; 0x159c <__floatsisf+0x12>

0000158a <__floatsisf>:
    158a:	97 fb       	bst	r25, 7
    158c:	3e f4       	brtc	.+14     	; 0x159c <__floatsisf+0x12>
    158e:	90 95       	com	r25
    1590:	80 95       	com	r24
    1592:	70 95       	com	r23
    1594:	61 95       	neg	r22
    1596:	7f 4f       	sbci	r23, 0xFF	; 255
    1598:	8f 4f       	sbci	r24, 0xFF	; 255
    159a:	9f 4f       	sbci	r25, 0xFF	; 255
    159c:	99 23       	and	r25, r25
    159e:	a9 f0       	breq	.+42     	; 0x15ca <__floatsisf+0x40>
    15a0:	f9 2f       	mov	r31, r25
    15a2:	96 e9       	ldi	r25, 0x96	; 150
    15a4:	bb 27       	eor	r27, r27
    15a6:	93 95       	inc	r25
    15a8:	f6 95       	lsr	r31
    15aa:	87 95       	ror	r24
    15ac:	77 95       	ror	r23
    15ae:	67 95       	ror	r22
    15b0:	b7 95       	ror	r27
    15b2:	f1 11       	cpse	r31, r1
    15b4:	f8 cf       	rjmp	.-16     	; 0x15a6 <__floatsisf+0x1c>
    15b6:	fa f4       	brpl	.+62     	; 0x15f6 <__floatsisf+0x6c>
    15b8:	bb 0f       	add	r27, r27
    15ba:	11 f4       	brne	.+4      	; 0x15c0 <__floatsisf+0x36>
    15bc:	60 ff       	sbrs	r22, 0
    15be:	1b c0       	rjmp	.+54     	; 0x15f6 <__floatsisf+0x6c>
    15c0:	6f 5f       	subi	r22, 0xFF	; 255
    15c2:	7f 4f       	sbci	r23, 0xFF	; 255
    15c4:	8f 4f       	sbci	r24, 0xFF	; 255
    15c6:	9f 4f       	sbci	r25, 0xFF	; 255
    15c8:	16 c0       	rjmp	.+44     	; 0x15f6 <__floatsisf+0x6c>
    15ca:	88 23       	and	r24, r24
    15cc:	11 f0       	breq	.+4      	; 0x15d2 <__floatsisf+0x48>
    15ce:	96 e9       	ldi	r25, 0x96	; 150
    15d0:	11 c0       	rjmp	.+34     	; 0x15f4 <__floatsisf+0x6a>
    15d2:	77 23       	and	r23, r23
    15d4:	21 f0       	breq	.+8      	; 0x15de <__floatsisf+0x54>
    15d6:	9e e8       	ldi	r25, 0x8E	; 142
    15d8:	87 2f       	mov	r24, r23
    15da:	76 2f       	mov	r23, r22
    15dc:	05 c0       	rjmp	.+10     	; 0x15e8 <__floatsisf+0x5e>
    15de:	66 23       	and	r22, r22
    15e0:	71 f0       	breq	.+28     	; 0x15fe <__floatsisf+0x74>
    15e2:	96 e8       	ldi	r25, 0x86	; 134
    15e4:	86 2f       	mov	r24, r22
    15e6:	70 e0       	ldi	r23, 0x00	; 0
    15e8:	60 e0       	ldi	r22, 0x00	; 0
    15ea:	2a f0       	brmi	.+10     	; 0x15f6 <__floatsisf+0x6c>
    15ec:	9a 95       	dec	r25
    15ee:	66 0f       	add	r22, r22
    15f0:	77 1f       	adc	r23, r23
    15f2:	88 1f       	adc	r24, r24
    15f4:	da f7       	brpl	.-10     	; 0x15ec <__floatsisf+0x62>
    15f6:	88 0f       	add	r24, r24
    15f8:	96 95       	lsr	r25
    15fa:	87 95       	ror	r24
    15fc:	97 f9       	bld	r25, 7
    15fe:	08 95       	ret

00001600 <__fp_cmp>:
    1600:	99 0f       	add	r25, r25
    1602:	00 08       	sbc	r0, r0
    1604:	55 0f       	add	r21, r21
    1606:	aa 0b       	sbc	r26, r26
    1608:	e0 e8       	ldi	r30, 0x80	; 128
    160a:	fe ef       	ldi	r31, 0xFE	; 254
    160c:	16 16       	cp	r1, r22
    160e:	17 06       	cpc	r1, r23
    1610:	e8 07       	cpc	r30, r24
    1612:	f9 07       	cpc	r31, r25
    1614:	c0 f0       	brcs	.+48     	; 0x1646 <__fp_cmp+0x46>
    1616:	12 16       	cp	r1, r18
    1618:	13 06       	cpc	r1, r19
    161a:	e4 07       	cpc	r30, r20
    161c:	f5 07       	cpc	r31, r21
    161e:	98 f0       	brcs	.+38     	; 0x1646 <__fp_cmp+0x46>
    1620:	62 1b       	sub	r22, r18
    1622:	73 0b       	sbc	r23, r19
    1624:	84 0b       	sbc	r24, r20
    1626:	95 0b       	sbc	r25, r21
    1628:	39 f4       	brne	.+14     	; 0x1638 <__fp_cmp+0x38>
    162a:	0a 26       	eor	r0, r26
    162c:	61 f0       	breq	.+24     	; 0x1646 <__fp_cmp+0x46>
    162e:	23 2b       	or	r18, r19
    1630:	24 2b       	or	r18, r20
    1632:	25 2b       	or	r18, r21
    1634:	21 f4       	brne	.+8      	; 0x163e <__fp_cmp+0x3e>
    1636:	08 95       	ret
    1638:	0a 26       	eor	r0, r26
    163a:	09 f4       	brne	.+2      	; 0x163e <__fp_cmp+0x3e>
    163c:	a1 40       	sbci	r26, 0x01	; 1
    163e:	a6 95       	lsr	r26
    1640:	8f ef       	ldi	r24, 0xFF	; 255
    1642:	81 1d       	adc	r24, r1
    1644:	81 1d       	adc	r24, r1
    1646:	08 95       	ret

00001648 <__fp_inf>:
    1648:	97 f9       	bld	r25, 7
    164a:	9f 67       	ori	r25, 0x7F	; 127
    164c:	80 e8       	ldi	r24, 0x80	; 128
    164e:	70 e0       	ldi	r23, 0x00	; 0
    1650:	60 e0       	ldi	r22, 0x00	; 0
    1652:	08 95       	ret

00001654 <__fp_nan>:
    1654:	9f ef       	ldi	r25, 0xFF	; 255
    1656:	80 ec       	ldi	r24, 0xC0	; 192
    1658:	08 95       	ret

0000165a <__fp_pscA>:
    165a:	00 24       	eor	r0, r0
    165c:	0a 94       	dec	r0
    165e:	16 16       	cp	r1, r22
    1660:	17 06       	cpc	r1, r23
    1662:	18 06       	cpc	r1, r24
    1664:	09 06       	cpc	r0, r25
    1666:	08 95       	ret

00001668 <__fp_pscB>:
    1668:	00 24       	eor	r0, r0
    166a:	0a 94       	dec	r0
    166c:	12 16       	cp	r1, r18
    166e:	13 06       	cpc	r1, r19
    1670:	14 06       	cpc	r1, r20
    1672:	05 06       	cpc	r0, r21
    1674:	08 95       	ret

00001676 <__fp_round>:
    1676:	09 2e       	mov	r0, r25
    1678:	03 94       	inc	r0
    167a:	00 0c       	add	r0, r0
    167c:	11 f4       	brne	.+4      	; 0x1682 <__fp_round+0xc>
    167e:	88 23       	and	r24, r24
    1680:	52 f0       	brmi	.+20     	; 0x1696 <__fp_round+0x20>
    1682:	bb 0f       	add	r27, r27
    1684:	40 f4       	brcc	.+16     	; 0x1696 <__fp_round+0x20>
    1686:	bf 2b       	or	r27, r31
    1688:	11 f4       	brne	.+4      	; 0x168e <__fp_round+0x18>
    168a:	60 ff       	sbrs	r22, 0
    168c:	04 c0       	rjmp	.+8      	; 0x1696 <__fp_round+0x20>
    168e:	6f 5f       	subi	r22, 0xFF	; 255
    1690:	7f 4f       	sbci	r23, 0xFF	; 255
    1692:	8f 4f       	sbci	r24, 0xFF	; 255
    1694:	9f 4f       	sbci	r25, 0xFF	; 255
    1696:	08 95       	ret

00001698 <__fp_split3>:
    1698:	57 fd       	sbrc	r21, 7
    169a:	90 58       	subi	r25, 0x80	; 128
    169c:	44 0f       	add	r20, r20
    169e:	55 1f       	adc	r21, r21
    16a0:	59 f0       	breq	.+22     	; 0x16b8 <__fp_splitA+0x10>
    16a2:	5f 3f       	cpi	r21, 0xFF	; 255
    16a4:	71 f0       	breq	.+28     	; 0x16c2 <__fp_splitA+0x1a>
    16a6:	47 95       	ror	r20

000016a8 <__fp_splitA>:
    16a8:	88 0f       	add	r24, r24
    16aa:	97 fb       	bst	r25, 7
    16ac:	99 1f       	adc	r25, r25
    16ae:	61 f0       	breq	.+24     	; 0x16c8 <__fp_splitA+0x20>
    16b0:	9f 3f       	cpi	r25, 0xFF	; 255
    16b2:	79 f0       	breq	.+30     	; 0x16d2 <__fp_splitA+0x2a>
    16b4:	87 95       	ror	r24
    16b6:	08 95       	ret
    16b8:	12 16       	cp	r1, r18
    16ba:	13 06       	cpc	r1, r19
    16bc:	14 06       	cpc	r1, r20
    16be:	55 1f       	adc	r21, r21
    16c0:	f2 cf       	rjmp	.-28     	; 0x16a6 <__fp_split3+0xe>
    16c2:	46 95       	lsr	r20
    16c4:	f1 df       	rcall	.-30     	; 0x16a8 <__fp_splitA>
    16c6:	08 c0       	rjmp	.+16     	; 0x16d8 <__fp_splitA+0x30>
    16c8:	16 16       	cp	r1, r22
    16ca:	17 06       	cpc	r1, r23
    16cc:	18 06       	cpc	r1, r24
    16ce:	99 1f       	adc	r25, r25
    16d0:	f1 cf       	rjmp	.-30     	; 0x16b4 <__fp_splitA+0xc>
    16d2:	86 95       	lsr	r24
    16d4:	71 05       	cpc	r23, r1
    16d6:	61 05       	cpc	r22, r1
    16d8:	08 94       	sec
    16da:	08 95       	ret

000016dc <__fp_zero>:
    16dc:	e8 94       	clt

000016de <__fp_szero>:
    16de:	bb 27       	eor	r27, r27
    16e0:	66 27       	eor	r22, r22
    16e2:	77 27       	eor	r23, r23
    16e4:	cb 01       	movw	r24, r22
    16e6:	97 f9       	bld	r25, 7
    16e8:	08 95       	ret

000016ea <__mulsf3>:
    16ea:	0b d0       	rcall	.+22     	; 0x1702 <__mulsf3x>
    16ec:	c4 cf       	rjmp	.-120    	; 0x1676 <__fp_round>
    16ee:	b5 df       	rcall	.-150    	; 0x165a <__fp_pscA>
    16f0:	28 f0       	brcs	.+10     	; 0x16fc <__mulsf3+0x12>
    16f2:	ba df       	rcall	.-140    	; 0x1668 <__fp_pscB>
    16f4:	18 f0       	brcs	.+6      	; 0x16fc <__mulsf3+0x12>
    16f6:	95 23       	and	r25, r21
    16f8:	09 f0       	breq	.+2      	; 0x16fc <__mulsf3+0x12>
    16fa:	a6 cf       	rjmp	.-180    	; 0x1648 <__fp_inf>
    16fc:	ab cf       	rjmp	.-170    	; 0x1654 <__fp_nan>
    16fe:	11 24       	eor	r1, r1
    1700:	ee cf       	rjmp	.-36     	; 0x16de <__fp_szero>

00001702 <__mulsf3x>:
    1702:	ca df       	rcall	.-108    	; 0x1698 <__fp_split3>
    1704:	a0 f3       	brcs	.-24     	; 0x16ee <__mulsf3+0x4>

00001706 <__mulsf3_pse>:
    1706:	95 9f       	mul	r25, r21
    1708:	d1 f3       	breq	.-12     	; 0x16fe <__mulsf3+0x14>
    170a:	95 0f       	add	r25, r21
    170c:	50 e0       	ldi	r21, 0x00	; 0
    170e:	55 1f       	adc	r21, r21
    1710:	62 9f       	mul	r22, r18
    1712:	f0 01       	movw	r30, r0
    1714:	72 9f       	mul	r23, r18
    1716:	bb 27       	eor	r27, r27
    1718:	f0 0d       	add	r31, r0
    171a:	b1 1d       	adc	r27, r1
    171c:	63 9f       	mul	r22, r19
    171e:	aa 27       	eor	r26, r26
    1720:	f0 0d       	add	r31, r0
    1722:	b1 1d       	adc	r27, r1
    1724:	aa 1f       	adc	r26, r26
    1726:	64 9f       	mul	r22, r20
    1728:	66 27       	eor	r22, r22
    172a:	b0 0d       	add	r27, r0
    172c:	a1 1d       	adc	r26, r1
    172e:	66 1f       	adc	r22, r22
    1730:	82 9f       	mul	r24, r18
    1732:	22 27       	eor	r18, r18
    1734:	b0 0d       	add	r27, r0
    1736:	a1 1d       	adc	r26, r1
    1738:	62 1f       	adc	r22, r18
    173a:	73 9f       	mul	r23, r19
    173c:	b0 0d       	add	r27, r0
    173e:	a1 1d       	adc	r26, r1
    1740:	62 1f       	adc	r22, r18
    1742:	83 9f       	mul	r24, r19
    1744:	a0 0d       	add	r26, r0
    1746:	61 1d       	adc	r22, r1
    1748:	22 1f       	adc	r18, r18
    174a:	74 9f       	mul	r23, r20
    174c:	33 27       	eor	r19, r19
    174e:	a0 0d       	add	r26, r0
    1750:	61 1d       	adc	r22, r1
    1752:	23 1f       	adc	r18, r19
    1754:	84 9f       	mul	r24, r20
    1756:	60 0d       	add	r22, r0
    1758:	21 1d       	adc	r18, r1
    175a:	82 2f       	mov	r24, r18
    175c:	76 2f       	mov	r23, r22
    175e:	6a 2f       	mov	r22, r26
    1760:	11 24       	eor	r1, r1
    1762:	9f 57       	subi	r25, 0x7F	; 127
    1764:	50 40       	sbci	r21, 0x00	; 0
    1766:	8a f0       	brmi	.+34     	; 0x178a <__mulsf3_pse+0x84>
    1768:	e1 f0       	breq	.+56     	; 0x17a2 <__mulsf3_pse+0x9c>
    176a:	88 23       	and	r24, r24
    176c:	4a f0       	brmi	.+18     	; 0x1780 <__mulsf3_pse+0x7a>
    176e:	ee 0f       	add	r30, r30
    1770:	ff 1f       	adc	r31, r31
    1772:	bb 1f       	adc	r27, r27
    1774:	66 1f       	adc	r22, r22
    1776:	77 1f       	adc	r23, r23
    1778:	88 1f       	adc	r24, r24
    177a:	91 50       	subi	r25, 0x01	; 1
    177c:	50 40       	sbci	r21, 0x00	; 0
    177e:	a9 f7       	brne	.-22     	; 0x176a <__mulsf3_pse+0x64>
    1780:	9e 3f       	cpi	r25, 0xFE	; 254
    1782:	51 05       	cpc	r21, r1
    1784:	70 f0       	brcs	.+28     	; 0x17a2 <__mulsf3_pse+0x9c>
    1786:	60 cf       	rjmp	.-320    	; 0x1648 <__fp_inf>
    1788:	aa cf       	rjmp	.-172    	; 0x16de <__fp_szero>
    178a:	5f 3f       	cpi	r21, 0xFF	; 255
    178c:	ec f3       	brlt	.-6      	; 0x1788 <__mulsf3_pse+0x82>
    178e:	98 3e       	cpi	r25, 0xE8	; 232
    1790:	dc f3       	brlt	.-10     	; 0x1788 <__mulsf3_pse+0x82>
    1792:	86 95       	lsr	r24
    1794:	77 95       	ror	r23
    1796:	67 95       	ror	r22
    1798:	b7 95       	ror	r27
    179a:	f7 95       	ror	r31
    179c:	e7 95       	ror	r30
    179e:	9f 5f       	subi	r25, 0xFF	; 255
    17a0:	c1 f7       	brne	.-16     	; 0x1792 <__mulsf3_pse+0x8c>
    17a2:	fe 2b       	or	r31, r30
    17a4:	88 0f       	add	r24, r24
    17a6:	91 1d       	adc	r25, r1
    17a8:	96 95       	lsr	r25
    17aa:	87 95       	ror	r24
    17ac:	97 f9       	bld	r25, 7
    17ae:	08 95       	ret

000017b0 <atoi>:
    17b0:	fc 01       	movw	r30, r24
    17b2:	88 27       	eor	r24, r24
    17b4:	99 27       	eor	r25, r25
    17b6:	e8 94       	clt
    17b8:	21 91       	ld	r18, Z+
    17ba:	20 32       	cpi	r18, 0x20	; 32
    17bc:	e9 f3       	breq	.-6      	; 0x17b8 <atoi+0x8>
    17be:	29 30       	cpi	r18, 0x09	; 9
    17c0:	10 f0       	brcs	.+4      	; 0x17c6 <atoi+0x16>
    17c2:	2e 30       	cpi	r18, 0x0E	; 14
    17c4:	c8 f3       	brcs	.-14     	; 0x17b8 <atoi+0x8>
    17c6:	2b 32       	cpi	r18, 0x2B	; 43
    17c8:	39 f0       	breq	.+14     	; 0x17d8 <atoi+0x28>
    17ca:	2d 32       	cpi	r18, 0x2D	; 45
    17cc:	31 f4       	brne	.+12     	; 0x17da <atoi+0x2a>
    17ce:	68 94       	set
    17d0:	03 c0       	rjmp	.+6      	; 0x17d8 <atoi+0x28>
    17d2:	4f d0       	rcall	.+158    	; 0x1872 <__mulhi_const_10>
    17d4:	82 0f       	add	r24, r18
    17d6:	91 1d       	adc	r25, r1
    17d8:	21 91       	ld	r18, Z+
    17da:	20 53       	subi	r18, 0x30	; 48
    17dc:	2a 30       	cpi	r18, 0x0A	; 10
    17de:	c8 f3       	brcs	.-14     	; 0x17d2 <atoi+0x22>
    17e0:	1e f4       	brtc	.+6      	; 0x17e8 <atoi+0x38>
    17e2:	90 95       	com	r25
    17e4:	81 95       	neg	r24
    17e6:	9f 4f       	sbci	r25, 0xFF	; 255
    17e8:	08 95       	ret

000017ea <strcat>:
    17ea:	fb 01       	movw	r30, r22
    17ec:	dc 01       	movw	r26, r24
    17ee:	0d 90       	ld	r0, X+
    17f0:	00 20       	and	r0, r0
    17f2:	e9 f7       	brne	.-6      	; 0x17ee <strcat+0x4>
    17f4:	11 97       	sbiw	r26, 0x01	; 1
    17f6:	01 90       	ld	r0, Z+
    17f8:	0d 92       	st	X+, r0
    17fa:	00 20       	and	r0, r0
    17fc:	e1 f7       	brne	.-8      	; 0x17f6 <strcat+0xc>
    17fe:	08 95       	ret

00001800 <strchr>:
    1800:	fc 01       	movw	r30, r24
    1802:	81 91       	ld	r24, Z+
    1804:	86 17       	cp	r24, r22
    1806:	21 f0       	breq	.+8      	; 0x1810 <strchr+0x10>
    1808:	88 23       	and	r24, r24
    180a:	d9 f7       	brne	.-10     	; 0x1802 <strchr+0x2>
    180c:	99 27       	eor	r25, r25
    180e:	08 95       	ret
    1810:	31 97       	sbiw	r30, 0x01	; 1
    1812:	cf 01       	movw	r24, r30
    1814:	08 95       	ret

00001816 <strncpy>:
    1816:	fb 01       	movw	r30, r22
    1818:	dc 01       	movw	r26, r24
    181a:	41 50       	subi	r20, 0x01	; 1
    181c:	50 40       	sbci	r21, 0x00	; 0
    181e:	48 f0       	brcs	.+18     	; 0x1832 <strncpy+0x1c>
    1820:	01 90       	ld	r0, Z+
    1822:	0d 92       	st	X+, r0
    1824:	00 20       	and	r0, r0
    1826:	c9 f7       	brne	.-14     	; 0x181a <strncpy+0x4>
    1828:	01 c0       	rjmp	.+2      	; 0x182c <strncpy+0x16>
    182a:	1d 92       	st	X+, r1
    182c:	41 50       	subi	r20, 0x01	; 1
    182e:	50 40       	sbci	r21, 0x00	; 0
    1830:	e0 f7       	brcc	.-8      	; 0x182a <strncpy+0x14>
    1832:	08 95       	ret

00001834 <itoa>:
    1834:	fb 01       	movw	r30, r22
    1836:	9f 01       	movw	r18, r30
    1838:	e8 94       	clt
    183a:	42 30       	cpi	r20, 0x02	; 2
    183c:	bc f0       	brlt	.+46     	; 0x186c <itoa+0x38>
    183e:	45 32       	cpi	r20, 0x25	; 37
    1840:	ac f4       	brge	.+42     	; 0x186c <itoa+0x38>
    1842:	4a 30       	cpi	r20, 0x0A	; 10
    1844:	29 f4       	brne	.+10     	; 0x1850 <itoa+0x1c>
    1846:	97 fb       	bst	r25, 7
    1848:	1e f4       	brtc	.+6      	; 0x1850 <itoa+0x1c>
    184a:	90 95       	com	r25
    184c:	81 95       	neg	r24
    184e:	9f 4f       	sbci	r25, 0xFF	; 255
    1850:	64 2f       	mov	r22, r20
    1852:	77 27       	eor	r23, r23
    1854:	26 d0       	rcall	.+76     	; 0x18a2 <__udivmodhi4>
    1856:	80 5d       	subi	r24, 0xD0	; 208
    1858:	8a 33       	cpi	r24, 0x3A	; 58
    185a:	0c f0       	brlt	.+2      	; 0x185e <itoa+0x2a>
    185c:	89 5d       	subi	r24, 0xD9	; 217
    185e:	81 93       	st	Z+, r24
    1860:	cb 01       	movw	r24, r22
    1862:	00 97       	sbiw	r24, 0x00	; 0
    1864:	a9 f7       	brne	.-22     	; 0x1850 <itoa+0x1c>
    1866:	16 f4       	brtc	.+4      	; 0x186c <itoa+0x38>
    1868:	5d e2       	ldi	r21, 0x2D	; 45
    186a:	51 93       	st	Z+, r21
    186c:	10 82       	st	Z, r1
    186e:	c9 01       	movw	r24, r18
    1870:	08 c0       	rjmp	.+16     	; 0x1882 <strrev>

00001872 <__mulhi_const_10>:
    1872:	7a e0       	ldi	r23, 0x0A	; 10
    1874:	97 9f       	mul	r25, r23
    1876:	90 2d       	mov	r25, r0
    1878:	87 9f       	mul	r24, r23
    187a:	80 2d       	mov	r24, r0
    187c:	91 0d       	add	r25, r1
    187e:	11 24       	eor	r1, r1
    1880:	08 95       	ret

00001882 <strrev>:
    1882:	dc 01       	movw	r26, r24
    1884:	fc 01       	movw	r30, r24
    1886:	67 2f       	mov	r22, r23
    1888:	71 91       	ld	r23, Z+
    188a:	77 23       	and	r23, r23
    188c:	e1 f7       	brne	.-8      	; 0x1886 <strrev+0x4>
    188e:	32 97       	sbiw	r30, 0x02	; 2
    1890:	04 c0       	rjmp	.+8      	; 0x189a <strrev+0x18>
    1892:	7c 91       	ld	r23, X
    1894:	6d 93       	st	X+, r22
    1896:	70 83       	st	Z, r23
    1898:	62 91       	ld	r22, -Z
    189a:	ae 17       	cp	r26, r30
    189c:	bf 07       	cpc	r27, r31
    189e:	c8 f3       	brcs	.-14     	; 0x1892 <strrev+0x10>
    18a0:	08 95       	ret

000018a2 <__udivmodhi4>:
    18a2:	aa 1b       	sub	r26, r26
    18a4:	bb 1b       	sub	r27, r27
    18a6:	51 e1       	ldi	r21, 0x11	; 17
    18a8:	07 c0       	rjmp	.+14     	; 0x18b8 <__udivmodhi4_ep>

000018aa <__udivmodhi4_loop>:
    18aa:	aa 1f       	adc	r26, r26
    18ac:	bb 1f       	adc	r27, r27
    18ae:	a6 17       	cp	r26, r22
    18b0:	b7 07       	cpc	r27, r23
    18b2:	10 f0       	brcs	.+4      	; 0x18b8 <__udivmodhi4_ep>
    18b4:	a6 1b       	sub	r26, r22
    18b6:	b7 0b       	sbc	r27, r23

000018b8 <__udivmodhi4_ep>:
    18b8:	88 1f       	adc	r24, r24
    18ba:	99 1f       	adc	r25, r25
    18bc:	5a 95       	dec	r21
    18be:	a9 f7       	brne	.-22     	; 0x18aa <__udivmodhi4_loop>
    18c0:	80 95       	com	r24
    18c2:	90 95       	com	r25
    18c4:	bc 01       	movw	r22, r24
    18c6:	cd 01       	movw	r24, r26
    18c8:	08 95       	ret

000018ca <_exit>:
    18ca:	f8 94       	cli

000018cc <__stop_program>:
    18cc:	ff cf       	rjmp	.-2      	; 0x18cc <__stop_program>
